
DS.elf:     file format elf32-littlearm

Sections:
Idx Name          Size      VMA       LMA       File off  Algn
  0 .isr_vector   000001e4  08000000  08000000  00010000  2**0
                  CONTENTS, ALLOC, LOAD, READONLY, DATA
  1 .text         00001520  080001e4  080001e4  000101e4  2**2
                  CONTENTS, ALLOC, LOAD, READONLY, CODE
  2 .rodata       00000000  08001704  08001704  00020014  2**0
                  CONTENTS, ALLOC, LOAD, DATA
  3 .init_array   00000004  08001704  08001704  00011704  2**2
                  CONTENTS, ALLOC, LOAD, DATA
  4 .fini_array   00000004  08001708  08001708  00011708  2**2
                  CONTENTS, ALLOC, LOAD, DATA
  5 .data         00000014  20000000  0800170c  00020000  2**2
                  CONTENTS, ALLOC, LOAD, DATA
  6 .bss          000006f8  20000014  08001720  00020014  2**2
                  ALLOC
  7 ._user_heap_stack 00000200  2000070c  08001720  0002070c  2**0
                  ALLOC
  8 .ARM.attributes 00000029  00000000  00000000  00020014  2**0
                  CONTENTS, READONLY
  9 .debug_info   00003a85  00000000  00000000  0002003d  2**0
                  CONTENTS, READONLY, DEBUGGING
 10 .debug_abbrev 00000f24  00000000  00000000  00023ac2  2**0
                  CONTENTS, READONLY, DEBUGGING
 11 .debug_aranges 000004f8  00000000  00000000  000249e8  2**3
                  CONTENTS, READONLY, DEBUGGING
 12 .debug_ranges 00000450  00000000  00000000  00024ee0  2**3
                  CONTENTS, READONLY, DEBUGGING
 13 .debug_line   00001ff5  00000000  00000000  00025330  2**0
                  CONTENTS, READONLY, DEBUGGING
 14 .debug_str    00001b2b  00000000  00000000  00027325  2**0
                  CONTENTS, READONLY, DEBUGGING
 15 .comment      0000007c  00000000  00000000  00028e50  2**0
                  CONTENTS, READONLY
 16 .debug_frame  00001318  00000000  00000000  00028ecc  2**2
                  CONTENTS, READONLY, DEBUGGING
 17 .stabstr      0000003f  00000000  00000000  0002a1e4  2**0
                  CONTENTS, READONLY, DEBUGGING

Disassembly of section .text:

080001e4 <__do_global_dtors_aux>:
 80001e4:	b510      	push	{r4, lr}
 80001e6:	4c05      	ldr	r4, [pc, #20]	; (80001fc <__do_global_dtors_aux+0x18>)
 80001e8:	7823      	ldrb	r3, [r4, #0]
 80001ea:	b933      	cbnz	r3, 80001fa <__do_global_dtors_aux+0x16>
 80001ec:	4b04      	ldr	r3, [pc, #16]	; (8000200 <__do_global_dtors_aux+0x1c>)
 80001ee:	b113      	cbz	r3, 80001f6 <__do_global_dtors_aux+0x12>
 80001f0:	4804      	ldr	r0, [pc, #16]	; (8000204 <__do_global_dtors_aux+0x20>)
 80001f2:	f3af 8000 	nop.w
 80001f6:	2301      	movs	r3, #1
 80001f8:	7023      	strb	r3, [r4, #0]
 80001fa:	bd10      	pop	{r4, pc}
 80001fc:	20000014 	.word	0x20000014
 8000200:	00000000 	.word	0x00000000
 8000204:	080016ec 	.word	0x080016ec

08000208 <frame_dummy>:
 8000208:	b508      	push	{r3, lr}
 800020a:	4b03      	ldr	r3, [pc, #12]	; (8000218 <frame_dummy+0x10>)
 800020c:	b11b      	cbz	r3, 8000216 <frame_dummy+0xe>
 800020e:	4903      	ldr	r1, [pc, #12]	; (800021c <frame_dummy+0x14>)
 8000210:	4803      	ldr	r0, [pc, #12]	; (8000220 <frame_dummy+0x18>)
 8000212:	f3af 8000 	nop.w
 8000216:	bd08      	pop	{r3, pc}
 8000218:	00000000 	.word	0x00000000
 800021c:	20000018 	.word	0x20000018
 8000220:	080016ec 	.word	0x080016ec

08000224 <NVIC_Init>:
  * @param  NVIC_InitStruct: pointer to a NVIC_InitTypeDef structure that contains
  *         the configuration information for the specified NVIC peripheral.
  * @retval None
  */
void NVIC_Init(NVIC_InitTypeDef* NVIC_InitStruct)
{
 8000224:	b480      	push	{r7}
 8000226:	b087      	sub	sp, #28
 8000228:	af00      	add	r7, sp, #0
 800022a:	6078      	str	r0, [r7, #4]
  uint32_t tmppriority = 0x00, tmppre = 0x00, tmpsub = 0x0F;
 800022c:	2300      	movs	r3, #0
 800022e:	617b      	str	r3, [r7, #20]
 8000230:	2300      	movs	r3, #0
 8000232:	613b      	str	r3, [r7, #16]
 8000234:	230f      	movs	r3, #15
 8000236:	60fb      	str	r3, [r7, #12]
  /* Check the parameters */
  assert_param(IS_FUNCTIONAL_STATE(NVIC_InitStruct->NVIC_IRQChannelCmd));
  assert_param(IS_NVIC_PREEMPTION_PRIORITY(NVIC_InitStruct->NVIC_IRQChannelPreemptionPriority));  
  assert_param(IS_NVIC_SUB_PRIORITY(NVIC_InitStruct->NVIC_IRQChannelSubPriority));
    
  if (NVIC_InitStruct->NVIC_IRQChannelCmd != DISABLE)
 8000238:	687b      	ldr	r3, [r7, #4]
 800023a:	78db      	ldrb	r3, [r3, #3]
 800023c:	2b00      	cmp	r3, #0
 800023e:	d03a      	beq.n	80002b6 <NVIC_Init+0x92>
  {
    /* Compute the Corresponding IRQ Priority --------------------------------*/    
    tmppriority = (0x700 - ((SCB->AIRCR) & (uint32_t)0x700))>> 0x08;
 8000240:	4b27      	ldr	r3, [pc, #156]	; (80002e0 <NVIC_Init+0xbc>)
 8000242:	68db      	ldr	r3, [r3, #12]
 8000244:	43db      	mvns	r3, r3
 8000246:	0a1b      	lsrs	r3, r3, #8
 8000248:	f003 0307 	and.w	r3, r3, #7
 800024c:	617b      	str	r3, [r7, #20]
    tmppre = (0x4 - tmppriority);
 800024e:	697b      	ldr	r3, [r7, #20]
 8000250:	f1c3 0304 	rsb	r3, r3, #4
 8000254:	613b      	str	r3, [r7, #16]
    tmpsub = tmpsub >> tmppriority;
 8000256:	68fa      	ldr	r2, [r7, #12]
 8000258:	697b      	ldr	r3, [r7, #20]
 800025a:	fa22 f303 	lsr.w	r3, r2, r3
 800025e:	60fb      	str	r3, [r7, #12]

    tmppriority = (uint32_t)NVIC_InitStruct->NVIC_IRQChannelPreemptionPriority << tmppre;
 8000260:	687b      	ldr	r3, [r7, #4]
 8000262:	785b      	ldrb	r3, [r3, #1]
 8000264:	461a      	mov	r2, r3
 8000266:	693b      	ldr	r3, [r7, #16]
 8000268:	fa02 f303 	lsl.w	r3, r2, r3
 800026c:	617b      	str	r3, [r7, #20]
    tmppriority |=  NVIC_InitStruct->NVIC_IRQChannelSubPriority & tmpsub;
 800026e:	687b      	ldr	r3, [r7, #4]
 8000270:	789b      	ldrb	r3, [r3, #2]
 8000272:	461a      	mov	r2, r3
 8000274:	68fb      	ldr	r3, [r7, #12]
 8000276:	4013      	ands	r3, r2
 8000278:	697a      	ldr	r2, [r7, #20]
 800027a:	4313      	orrs	r3, r2
 800027c:	617b      	str	r3, [r7, #20]
    tmppriority = tmppriority << 0x04;
 800027e:	697b      	ldr	r3, [r7, #20]
 8000280:	011b      	lsls	r3, r3, #4
 8000282:	617b      	str	r3, [r7, #20]
        
    NVIC->IP[NVIC_InitStruct->NVIC_IRQChannel] = tmppriority;
 8000284:	4a17      	ldr	r2, [pc, #92]	; (80002e4 <NVIC_Init+0xc0>)
 8000286:	687b      	ldr	r3, [r7, #4]
 8000288:	781b      	ldrb	r3, [r3, #0]
 800028a:	6979      	ldr	r1, [r7, #20]
 800028c:	b2c9      	uxtb	r1, r1
 800028e:	4413      	add	r3, r2
 8000290:	460a      	mov	r2, r1
 8000292:	f883 2300 	strb.w	r2, [r3, #768]	; 0x300
    
    /* Enable the Selected IRQ Channels --------------------------------------*/
    NVIC->ISER[NVIC_InitStruct->NVIC_IRQChannel >> 0x05] =
 8000296:	4a13      	ldr	r2, [pc, #76]	; (80002e4 <NVIC_Init+0xc0>)
 8000298:	687b      	ldr	r3, [r7, #4]
 800029a:	781b      	ldrb	r3, [r3, #0]
 800029c:	095b      	lsrs	r3, r3, #5
 800029e:	b2db      	uxtb	r3, r3
 80002a0:	4618      	mov	r0, r3
      (uint32_t)0x01 << (NVIC_InitStruct->NVIC_IRQChannel & (uint8_t)0x1F);
 80002a2:	687b      	ldr	r3, [r7, #4]
 80002a4:	781b      	ldrb	r3, [r3, #0]
 80002a6:	f003 031f 	and.w	r3, r3, #31
 80002aa:	2101      	movs	r1, #1
 80002ac:	fa01 f303 	lsl.w	r3, r1, r3
    NVIC->ISER[NVIC_InitStruct->NVIC_IRQChannel >> 0x05] =
 80002b0:	f842 3020 	str.w	r3, [r2, r0, lsl #2]
  {
    /* Disable the Selected IRQ Channels -------------------------------------*/
    NVIC->ICER[NVIC_InitStruct->NVIC_IRQChannel >> 0x05] =
      (uint32_t)0x01 << (NVIC_InitStruct->NVIC_IRQChannel & (uint8_t)0x1F);
  }
}
 80002b4:	e00f      	b.n	80002d6 <NVIC_Init+0xb2>
    NVIC->ICER[NVIC_InitStruct->NVIC_IRQChannel >> 0x05] =
 80002b6:	490b      	ldr	r1, [pc, #44]	; (80002e4 <NVIC_Init+0xc0>)
 80002b8:	687b      	ldr	r3, [r7, #4]
 80002ba:	781b      	ldrb	r3, [r3, #0]
 80002bc:	095b      	lsrs	r3, r3, #5
 80002be:	b2db      	uxtb	r3, r3
 80002c0:	4618      	mov	r0, r3
      (uint32_t)0x01 << (NVIC_InitStruct->NVIC_IRQChannel & (uint8_t)0x1F);
 80002c2:	687b      	ldr	r3, [r7, #4]
 80002c4:	781b      	ldrb	r3, [r3, #0]
 80002c6:	f003 031f 	and.w	r3, r3, #31
 80002ca:	2201      	movs	r2, #1
 80002cc:	409a      	lsls	r2, r3
    NVIC->ICER[NVIC_InitStruct->NVIC_IRQChannel >> 0x05] =
 80002ce:	f100 0320 	add.w	r3, r0, #32
 80002d2:	f841 2023 	str.w	r2, [r1, r3, lsl #2]
}
 80002d6:	bf00      	nop
 80002d8:	371c      	adds	r7, #28
 80002da:	46bd      	mov	sp, r7
 80002dc:	bc80      	pop	{r7}
 80002de:	4770      	bx	lr
 80002e0:	e000ed00 	.word	0xe000ed00
 80002e4:	e000e100 	.word	0xe000e100

080002e8 <DMA_DeInit>:
  * @param  DMAy_Channelx: where y can be 1 or 2 to select the DMA and
  *   x can be 1 to 7 for DMA1 and 1 to 5 for DMA2 to select the DMA Channel.
  * @retval None
  */
void DMA_DeInit(DMA_Channel_TypeDef* DMAy_Channelx)
{
 80002e8:	b480      	push	{r7}
 80002ea:	b083      	sub	sp, #12
 80002ec:	af00      	add	r7, sp, #0
 80002ee:	6078      	str	r0, [r7, #4]
  /* Check the parameters */
  assert_param(IS_DMA_ALL_PERIPH(DMAy_Channelx));
  
  /* Disable the selected DMAy Channelx */
  DMAy_Channelx->CCR &= (uint16_t)(~DMA_CCR1_EN);
 80002f0:	687b      	ldr	r3, [r7, #4]
 80002f2:	681a      	ldr	r2, [r3, #0]
 80002f4:	f64f 73fe 	movw	r3, #65534	; 0xfffe
 80002f8:	4013      	ands	r3, r2
 80002fa:	687a      	ldr	r2, [r7, #4]
 80002fc:	6013      	str	r3, [r2, #0]
  
  /* Reset DMAy Channelx control register */
  DMAy_Channelx->CCR  = 0;
 80002fe:	687b      	ldr	r3, [r7, #4]
 8000300:	2200      	movs	r2, #0
 8000302:	601a      	str	r2, [r3, #0]
  
  /* Reset DMAy Channelx remaining bytes register */
  DMAy_Channelx->CNDTR = 0;
 8000304:	687b      	ldr	r3, [r7, #4]
 8000306:	2200      	movs	r2, #0
 8000308:	605a      	str	r2, [r3, #4]
  
  /* Reset DMAy Channelx peripheral address register */
  DMAy_Channelx->CPAR  = 0;
 800030a:	687b      	ldr	r3, [r7, #4]
 800030c:	2200      	movs	r2, #0
 800030e:	609a      	str	r2, [r3, #8]
  
  /* Reset DMAy Channelx memory address register */
  DMAy_Channelx->CMAR = 0;
 8000310:	687b      	ldr	r3, [r7, #4]
 8000312:	2200      	movs	r2, #0
 8000314:	60da      	str	r2, [r3, #12]
  
  if (DMAy_Channelx == DMA1_Channel1)
 8000316:	687b      	ldr	r3, [r7, #4]
 8000318:	4a43      	ldr	r2, [pc, #268]	; (8000428 <DMA_DeInit+0x140>)
 800031a:	4293      	cmp	r3, r2
 800031c:	d106      	bne.n	800032c <DMA_DeInit+0x44>
  {
    /* Reset interrupt pending bits for DMA1 Channel1 */
    DMA1->IFCR |= DMA1_Channel1_IT_Mask;
 800031e:	4a43      	ldr	r2, [pc, #268]	; (800042c <DMA_DeInit+0x144>)
 8000320:	4b42      	ldr	r3, [pc, #264]	; (800042c <DMA_DeInit+0x144>)
 8000322:	685b      	ldr	r3, [r3, #4]
 8000324:	f043 030f 	orr.w	r3, r3, #15
 8000328:	6053      	str	r3, [r2, #4]
    {
      /* Reset interrupt pending bits for DMA2 Channel5 */
      DMA2->IFCR |= DMA2_Channel5_IT_Mask;
    }
  }
}
 800032a:	e077      	b.n	800041c <DMA_DeInit+0x134>
  else if (DMAy_Channelx == DMA1_Channel2)
 800032c:	687b      	ldr	r3, [r7, #4]
 800032e:	4a40      	ldr	r2, [pc, #256]	; (8000430 <DMA_DeInit+0x148>)
 8000330:	4293      	cmp	r3, r2
 8000332:	d106      	bne.n	8000342 <DMA_DeInit+0x5a>
    DMA1->IFCR |= DMA1_Channel2_IT_Mask;
 8000334:	4a3d      	ldr	r2, [pc, #244]	; (800042c <DMA_DeInit+0x144>)
 8000336:	4b3d      	ldr	r3, [pc, #244]	; (800042c <DMA_DeInit+0x144>)
 8000338:	685b      	ldr	r3, [r3, #4]
 800033a:	f043 03f0 	orr.w	r3, r3, #240	; 0xf0
 800033e:	6053      	str	r3, [r2, #4]
}
 8000340:	e06c      	b.n	800041c <DMA_DeInit+0x134>
  else if (DMAy_Channelx == DMA1_Channel3)
 8000342:	687b      	ldr	r3, [r7, #4]
 8000344:	4a3b      	ldr	r2, [pc, #236]	; (8000434 <DMA_DeInit+0x14c>)
 8000346:	4293      	cmp	r3, r2
 8000348:	d106      	bne.n	8000358 <DMA_DeInit+0x70>
    DMA1->IFCR |= DMA1_Channel3_IT_Mask;
 800034a:	4a38      	ldr	r2, [pc, #224]	; (800042c <DMA_DeInit+0x144>)
 800034c:	4b37      	ldr	r3, [pc, #220]	; (800042c <DMA_DeInit+0x144>)
 800034e:	685b      	ldr	r3, [r3, #4]
 8000350:	f443 6370 	orr.w	r3, r3, #3840	; 0xf00
 8000354:	6053      	str	r3, [r2, #4]
}
 8000356:	e061      	b.n	800041c <DMA_DeInit+0x134>
  else if (DMAy_Channelx == DMA1_Channel4)
 8000358:	687b      	ldr	r3, [r7, #4]
 800035a:	4a37      	ldr	r2, [pc, #220]	; (8000438 <DMA_DeInit+0x150>)
 800035c:	4293      	cmp	r3, r2
 800035e:	d106      	bne.n	800036e <DMA_DeInit+0x86>
    DMA1->IFCR |= DMA1_Channel4_IT_Mask;
 8000360:	4a32      	ldr	r2, [pc, #200]	; (800042c <DMA_DeInit+0x144>)
 8000362:	4b32      	ldr	r3, [pc, #200]	; (800042c <DMA_DeInit+0x144>)
 8000364:	685b      	ldr	r3, [r3, #4]
 8000366:	f443 4370 	orr.w	r3, r3, #61440	; 0xf000
 800036a:	6053      	str	r3, [r2, #4]
}
 800036c:	e056      	b.n	800041c <DMA_DeInit+0x134>
  else if (DMAy_Channelx == DMA1_Channel5)
 800036e:	687b      	ldr	r3, [r7, #4]
 8000370:	4a32      	ldr	r2, [pc, #200]	; (800043c <DMA_DeInit+0x154>)
 8000372:	4293      	cmp	r3, r2
 8000374:	d106      	bne.n	8000384 <DMA_DeInit+0x9c>
    DMA1->IFCR |= DMA1_Channel5_IT_Mask;
 8000376:	4a2d      	ldr	r2, [pc, #180]	; (800042c <DMA_DeInit+0x144>)
 8000378:	4b2c      	ldr	r3, [pc, #176]	; (800042c <DMA_DeInit+0x144>)
 800037a:	685b      	ldr	r3, [r3, #4]
 800037c:	f443 2370 	orr.w	r3, r3, #983040	; 0xf0000
 8000380:	6053      	str	r3, [r2, #4]
}
 8000382:	e04b      	b.n	800041c <DMA_DeInit+0x134>
  else if (DMAy_Channelx == DMA1_Channel6)
 8000384:	687b      	ldr	r3, [r7, #4]
 8000386:	4a2e      	ldr	r2, [pc, #184]	; (8000440 <DMA_DeInit+0x158>)
 8000388:	4293      	cmp	r3, r2
 800038a:	d106      	bne.n	800039a <DMA_DeInit+0xb2>
    DMA1->IFCR |= DMA1_Channel6_IT_Mask;
 800038c:	4a27      	ldr	r2, [pc, #156]	; (800042c <DMA_DeInit+0x144>)
 800038e:	4b27      	ldr	r3, [pc, #156]	; (800042c <DMA_DeInit+0x144>)
 8000390:	685b      	ldr	r3, [r3, #4]
 8000392:	f443 0370 	orr.w	r3, r3, #15728640	; 0xf00000
 8000396:	6053      	str	r3, [r2, #4]
}
 8000398:	e040      	b.n	800041c <DMA_DeInit+0x134>
  else if (DMAy_Channelx == DMA1_Channel7)
 800039a:	687b      	ldr	r3, [r7, #4]
 800039c:	4a29      	ldr	r2, [pc, #164]	; (8000444 <DMA_DeInit+0x15c>)
 800039e:	4293      	cmp	r3, r2
 80003a0:	d106      	bne.n	80003b0 <DMA_DeInit+0xc8>
    DMA1->IFCR |= DMA1_Channel7_IT_Mask;
 80003a2:	4a22      	ldr	r2, [pc, #136]	; (800042c <DMA_DeInit+0x144>)
 80003a4:	4b21      	ldr	r3, [pc, #132]	; (800042c <DMA_DeInit+0x144>)
 80003a6:	685b      	ldr	r3, [r3, #4]
 80003a8:	f043 6370 	orr.w	r3, r3, #251658240	; 0xf000000
 80003ac:	6053      	str	r3, [r2, #4]
}
 80003ae:	e035      	b.n	800041c <DMA_DeInit+0x134>
  else if (DMAy_Channelx == DMA2_Channel1)
 80003b0:	687b      	ldr	r3, [r7, #4]
 80003b2:	4a25      	ldr	r2, [pc, #148]	; (8000448 <DMA_DeInit+0x160>)
 80003b4:	4293      	cmp	r3, r2
 80003b6:	d106      	bne.n	80003c6 <DMA_DeInit+0xde>
    DMA2->IFCR |= DMA2_Channel1_IT_Mask;
 80003b8:	4a24      	ldr	r2, [pc, #144]	; (800044c <DMA_DeInit+0x164>)
 80003ba:	4b24      	ldr	r3, [pc, #144]	; (800044c <DMA_DeInit+0x164>)
 80003bc:	685b      	ldr	r3, [r3, #4]
 80003be:	f043 030f 	orr.w	r3, r3, #15
 80003c2:	6053      	str	r3, [r2, #4]
}
 80003c4:	e02a      	b.n	800041c <DMA_DeInit+0x134>
  else if (DMAy_Channelx == DMA2_Channel2)
 80003c6:	687b      	ldr	r3, [r7, #4]
 80003c8:	4a21      	ldr	r2, [pc, #132]	; (8000450 <DMA_DeInit+0x168>)
 80003ca:	4293      	cmp	r3, r2
 80003cc:	d106      	bne.n	80003dc <DMA_DeInit+0xf4>
    DMA2->IFCR |= DMA2_Channel2_IT_Mask;
 80003ce:	4a1f      	ldr	r2, [pc, #124]	; (800044c <DMA_DeInit+0x164>)
 80003d0:	4b1e      	ldr	r3, [pc, #120]	; (800044c <DMA_DeInit+0x164>)
 80003d2:	685b      	ldr	r3, [r3, #4]
 80003d4:	f043 03f0 	orr.w	r3, r3, #240	; 0xf0
 80003d8:	6053      	str	r3, [r2, #4]
}
 80003da:	e01f      	b.n	800041c <DMA_DeInit+0x134>
  else if (DMAy_Channelx == DMA2_Channel3)
 80003dc:	687b      	ldr	r3, [r7, #4]
 80003de:	4a1d      	ldr	r2, [pc, #116]	; (8000454 <DMA_DeInit+0x16c>)
 80003e0:	4293      	cmp	r3, r2
 80003e2:	d106      	bne.n	80003f2 <DMA_DeInit+0x10a>
    DMA2->IFCR |= DMA2_Channel3_IT_Mask;
 80003e4:	4a19      	ldr	r2, [pc, #100]	; (800044c <DMA_DeInit+0x164>)
 80003e6:	4b19      	ldr	r3, [pc, #100]	; (800044c <DMA_DeInit+0x164>)
 80003e8:	685b      	ldr	r3, [r3, #4]
 80003ea:	f443 6370 	orr.w	r3, r3, #3840	; 0xf00
 80003ee:	6053      	str	r3, [r2, #4]
}
 80003f0:	e014      	b.n	800041c <DMA_DeInit+0x134>
  else if (DMAy_Channelx == DMA2_Channel4)
 80003f2:	687b      	ldr	r3, [r7, #4]
 80003f4:	4a18      	ldr	r2, [pc, #96]	; (8000458 <DMA_DeInit+0x170>)
 80003f6:	4293      	cmp	r3, r2
 80003f8:	d106      	bne.n	8000408 <DMA_DeInit+0x120>
    DMA2->IFCR |= DMA2_Channel4_IT_Mask;
 80003fa:	4a14      	ldr	r2, [pc, #80]	; (800044c <DMA_DeInit+0x164>)
 80003fc:	4b13      	ldr	r3, [pc, #76]	; (800044c <DMA_DeInit+0x164>)
 80003fe:	685b      	ldr	r3, [r3, #4]
 8000400:	f443 4370 	orr.w	r3, r3, #61440	; 0xf000
 8000404:	6053      	str	r3, [r2, #4]
}
 8000406:	e009      	b.n	800041c <DMA_DeInit+0x134>
    if (DMAy_Channelx == DMA2_Channel5)
 8000408:	687b      	ldr	r3, [r7, #4]
 800040a:	4a14      	ldr	r2, [pc, #80]	; (800045c <DMA_DeInit+0x174>)
 800040c:	4293      	cmp	r3, r2
 800040e:	d105      	bne.n	800041c <DMA_DeInit+0x134>
      DMA2->IFCR |= DMA2_Channel5_IT_Mask;
 8000410:	4a0e      	ldr	r2, [pc, #56]	; (800044c <DMA_DeInit+0x164>)
 8000412:	4b0e      	ldr	r3, [pc, #56]	; (800044c <DMA_DeInit+0x164>)
 8000414:	685b      	ldr	r3, [r3, #4]
 8000416:	f443 2370 	orr.w	r3, r3, #983040	; 0xf0000
 800041a:	6053      	str	r3, [r2, #4]
}
 800041c:	bf00      	nop
 800041e:	370c      	adds	r7, #12
 8000420:	46bd      	mov	sp, r7
 8000422:	bc80      	pop	{r7}
 8000424:	4770      	bx	lr
 8000426:	bf00      	nop
 8000428:	40020008 	.word	0x40020008
 800042c:	40020000 	.word	0x40020000
 8000430:	4002001c 	.word	0x4002001c
 8000434:	40020030 	.word	0x40020030
 8000438:	40020044 	.word	0x40020044
 800043c:	40020058 	.word	0x40020058
 8000440:	4002006c 	.word	0x4002006c
 8000444:	40020080 	.word	0x40020080
 8000448:	40020408 	.word	0x40020408
 800044c:	40020400 	.word	0x40020400
 8000450:	4002041c 	.word	0x4002041c
 8000454:	40020430 	.word	0x40020430
 8000458:	40020444 	.word	0x40020444
 800045c:	40020458 	.word	0x40020458

08000460 <DMA_Init>:
  * @param  DMA_InitStruct: pointer to a DMA_InitTypeDef structure that
  *         contains the configuration information for the specified DMA Channel.
  * @retval None
  */
void DMA_Init(DMA_Channel_TypeDef* DMAy_Channelx, DMA_InitTypeDef* DMA_InitStruct)
{
 8000460:	b480      	push	{r7}
 8000462:	b085      	sub	sp, #20
 8000464:	af00      	add	r7, sp, #0
 8000466:	6078      	str	r0, [r7, #4]
 8000468:	6039      	str	r1, [r7, #0]
  uint32_t tmpreg = 0;
 800046a:	2300      	movs	r3, #0
 800046c:	60fb      	str	r3, [r7, #12]
  assert_param(IS_DMA_PRIORITY(DMA_InitStruct->DMA_Priority));
  assert_param(IS_DMA_M2M_STATE(DMA_InitStruct->DMA_M2M));

/*--------------------------- DMAy Channelx CCR Configuration -----------------*/
  /* Get the DMAy_Channelx CCR value */
  tmpreg = DMAy_Channelx->CCR;
 800046e:	687b      	ldr	r3, [r7, #4]
 8000470:	681b      	ldr	r3, [r3, #0]
 8000472:	60fb      	str	r3, [r7, #12]
  /* Clear MEM2MEM, PL, MSIZE, PSIZE, MINC, PINC, CIRC and DIR bits */
  tmpreg &= CCR_CLEAR_Mask;
 8000474:	68fb      	ldr	r3, [r7, #12]
 8000476:	f423 43ff 	bic.w	r3, r3, #32640	; 0x7f80
 800047a:	f023 0370 	bic.w	r3, r3, #112	; 0x70
 800047e:	60fb      	str	r3, [r7, #12]
  /* Set MINC bit according to DMA_MemoryInc value */
  /* Set PSIZE bits according to DMA_PeripheralDataSize value */
  /* Set MSIZE bits according to DMA_MemoryDataSize value */
  /* Set PL bits according to DMA_Priority value */
  /* Set the MEM2MEM bit according to DMA_M2M value */
  tmpreg |= DMA_InitStruct->DMA_DIR | DMA_InitStruct->DMA_Mode |
 8000480:	683b      	ldr	r3, [r7, #0]
 8000482:	689a      	ldr	r2, [r3, #8]
 8000484:	683b      	ldr	r3, [r7, #0]
 8000486:	6a1b      	ldr	r3, [r3, #32]
 8000488:	431a      	orrs	r2, r3
            DMA_InitStruct->DMA_PeripheralInc | DMA_InitStruct->DMA_MemoryInc |
 800048a:	683b      	ldr	r3, [r7, #0]
 800048c:	691b      	ldr	r3, [r3, #16]
  tmpreg |= DMA_InitStruct->DMA_DIR | DMA_InitStruct->DMA_Mode |
 800048e:	431a      	orrs	r2, r3
            DMA_InitStruct->DMA_PeripheralInc | DMA_InitStruct->DMA_MemoryInc |
 8000490:	683b      	ldr	r3, [r7, #0]
 8000492:	695b      	ldr	r3, [r3, #20]
 8000494:	431a      	orrs	r2, r3
            DMA_InitStruct->DMA_PeripheralDataSize | DMA_InitStruct->DMA_MemoryDataSize |
 8000496:	683b      	ldr	r3, [r7, #0]
 8000498:	699b      	ldr	r3, [r3, #24]
            DMA_InitStruct->DMA_PeripheralInc | DMA_InitStruct->DMA_MemoryInc |
 800049a:	431a      	orrs	r2, r3
            DMA_InitStruct->DMA_PeripheralDataSize | DMA_InitStruct->DMA_MemoryDataSize |
 800049c:	683b      	ldr	r3, [r7, #0]
 800049e:	69db      	ldr	r3, [r3, #28]
 80004a0:	431a      	orrs	r2, r3
            DMA_InitStruct->DMA_Priority | DMA_InitStruct->DMA_M2M;
 80004a2:	683b      	ldr	r3, [r7, #0]
 80004a4:	6a5b      	ldr	r3, [r3, #36]	; 0x24
            DMA_InitStruct->DMA_PeripheralDataSize | DMA_InitStruct->DMA_MemoryDataSize |
 80004a6:	431a      	orrs	r2, r3
            DMA_InitStruct->DMA_Priority | DMA_InitStruct->DMA_M2M;
 80004a8:	683b      	ldr	r3, [r7, #0]
 80004aa:	6a9b      	ldr	r3, [r3, #40]	; 0x28
 80004ac:	4313      	orrs	r3, r2
  tmpreg |= DMA_InitStruct->DMA_DIR | DMA_InitStruct->DMA_Mode |
 80004ae:	68fa      	ldr	r2, [r7, #12]
 80004b0:	4313      	orrs	r3, r2
 80004b2:	60fb      	str	r3, [r7, #12]

  /* Write to DMAy Channelx CCR */
  DMAy_Channelx->CCR = tmpreg;
 80004b4:	687b      	ldr	r3, [r7, #4]
 80004b6:	68fa      	ldr	r2, [r7, #12]
 80004b8:	601a      	str	r2, [r3, #0]

/*--------------------------- DMAy Channelx CNDTR Configuration ---------------*/
  /* Write to DMAy Channelx CNDTR */
  DMAy_Channelx->CNDTR = DMA_InitStruct->DMA_BufferSize;
 80004ba:	683b      	ldr	r3, [r7, #0]
 80004bc:	68da      	ldr	r2, [r3, #12]
 80004be:	687b      	ldr	r3, [r7, #4]
 80004c0:	605a      	str	r2, [r3, #4]

/*--------------------------- DMAy Channelx CPAR Configuration ----------------*/
  /* Write to DMAy Channelx CPAR */
  DMAy_Channelx->CPAR = DMA_InitStruct->DMA_PeripheralBaseAddr;
 80004c2:	683b      	ldr	r3, [r7, #0]
 80004c4:	681a      	ldr	r2, [r3, #0]
 80004c6:	687b      	ldr	r3, [r7, #4]
 80004c8:	609a      	str	r2, [r3, #8]

/*--------------------------- DMAy Channelx CMAR Configuration ----------------*/
  /* Write to DMAy Channelx CMAR */
  DMAy_Channelx->CMAR = DMA_InitStruct->DMA_MemoryBaseAddr;
 80004ca:	683b      	ldr	r3, [r7, #0]
 80004cc:	685a      	ldr	r2, [r3, #4]
 80004ce:	687b      	ldr	r3, [r7, #4]
 80004d0:	60da      	str	r2, [r3, #12]
}
 80004d2:	bf00      	nop
 80004d4:	3714      	adds	r7, #20
 80004d6:	46bd      	mov	sp, r7
 80004d8:	bc80      	pop	{r7}
 80004da:	4770      	bx	lr

080004dc <DMA_Cmd>:
  * @param  NewState: new state of the DMAy Channelx. 
  *   This parameter can be: ENABLE or DISABLE.
  * @retval None
  */
void DMA_Cmd(DMA_Channel_TypeDef* DMAy_Channelx, FunctionalState NewState)
{
 80004dc:	b480      	push	{r7}
 80004de:	b083      	sub	sp, #12
 80004e0:	af00      	add	r7, sp, #0
 80004e2:	6078      	str	r0, [r7, #4]
 80004e4:	460b      	mov	r3, r1
 80004e6:	70fb      	strb	r3, [r7, #3]
  /* Check the parameters */
  assert_param(IS_DMA_ALL_PERIPH(DMAy_Channelx));
  assert_param(IS_FUNCTIONAL_STATE(NewState));

  if (NewState != DISABLE)
 80004e8:	78fb      	ldrb	r3, [r7, #3]
 80004ea:	2b00      	cmp	r3, #0
 80004ec:	d006      	beq.n	80004fc <DMA_Cmd+0x20>
  {
    /* Enable the selected DMAy Channelx */
    DMAy_Channelx->CCR |= DMA_CCR1_EN;
 80004ee:	687b      	ldr	r3, [r7, #4]
 80004f0:	681b      	ldr	r3, [r3, #0]
 80004f2:	f043 0201 	orr.w	r2, r3, #1
 80004f6:	687b      	ldr	r3, [r7, #4]
 80004f8:	601a      	str	r2, [r3, #0]
  else
  {
    /* Disable the selected DMAy Channelx */
    DMAy_Channelx->CCR &= (uint16_t)(~DMA_CCR1_EN);
  }
}
 80004fa:	e006      	b.n	800050a <DMA_Cmd+0x2e>
    DMAy_Channelx->CCR &= (uint16_t)(~DMA_CCR1_EN);
 80004fc:	687b      	ldr	r3, [r7, #4]
 80004fe:	681a      	ldr	r2, [r3, #0]
 8000500:	f64f 73fe 	movw	r3, #65534	; 0xfffe
 8000504:	4013      	ands	r3, r2
 8000506:	687a      	ldr	r2, [r7, #4]
 8000508:	6013      	str	r3, [r2, #0]
}
 800050a:	bf00      	nop
 800050c:	370c      	adds	r7, #12
 800050e:	46bd      	mov	sp, r7
 8000510:	bc80      	pop	{r7}
 8000512:	4770      	bx	lr

08000514 <DMA_SetCurrDataCounter>:
  *         transfer.   
  * @note   This function can only be used when the DMAy_Channelx is disabled.                 
  * @retval None.
  */
void DMA_SetCurrDataCounter(DMA_Channel_TypeDef* DMAy_Channelx, uint16_t DataNumber)
{
 8000514:	b480      	push	{r7}
 8000516:	b083      	sub	sp, #12
 8000518:	af00      	add	r7, sp, #0
 800051a:	6078      	str	r0, [r7, #4]
 800051c:	460b      	mov	r3, r1
 800051e:	807b      	strh	r3, [r7, #2]
  /* Check the parameters */
  assert_param(IS_DMA_ALL_PERIPH(DMAy_Channelx));
  
/*--------------------------- DMAy Channelx CNDTR Configuration ---------------*/
  /* Write to DMAy Channelx CNDTR */
  DMAy_Channelx->CNDTR = DataNumber;  
 8000520:	887a      	ldrh	r2, [r7, #2]
 8000522:	687b      	ldr	r3, [r7, #4]
 8000524:	605a      	str	r2, [r3, #4]
}
 8000526:	bf00      	nop
 8000528:	370c      	adds	r7, #12
 800052a:	46bd      	mov	sp, r7
 800052c:	bc80      	pop	{r7}
 800052e:	4770      	bx	lr

08000530 <DMA_GetCurrDataCounter>:
  *   x can be 1 to 7 for DMA1 and 1 to 5 for DMA2 to select the DMA Channel.
  * @retval The number of remaining data units in the current DMAy Channelx
  *         transfer.
  */
uint16_t DMA_GetCurrDataCounter(DMA_Channel_TypeDef* DMAy_Channelx)
{
 8000530:	b480      	push	{r7}
 8000532:	b083      	sub	sp, #12
 8000534:	af00      	add	r7, sp, #0
 8000536:	6078      	str	r0, [r7, #4]
  /* Check the parameters */
  assert_param(IS_DMA_ALL_PERIPH(DMAy_Channelx));
  /* Return the number of remaining data units for DMAy Channelx */
  return ((uint16_t)(DMAy_Channelx->CNDTR));
 8000538:	687b      	ldr	r3, [r7, #4]
 800053a:	685b      	ldr	r3, [r3, #4]
 800053c:	b29b      	uxth	r3, r3
}
 800053e:	4618      	mov	r0, r3
 8000540:	370c      	adds	r7, #12
 8000542:	46bd      	mov	sp, r7
 8000544:	bc80      	pop	{r7}
 8000546:	4770      	bx	lr

08000548 <DMA_ClearFlag>:
  *     @arg DMA2_FLAG_HT5: DMA2 Channel5 half transfer flag.
  *     @arg DMA2_FLAG_TE5: DMA2 Channel5 transfer error flag.
  * @retval None
  */
void DMA_ClearFlag(uint32_t DMAy_FLAG)
{
 8000548:	b480      	push	{r7}
 800054a:	b083      	sub	sp, #12
 800054c:	af00      	add	r7, sp, #0
 800054e:	6078      	str	r0, [r7, #4]
  /* Check the parameters */
  assert_param(IS_DMA_CLEAR_FLAG(DMAy_FLAG));

  /* Calculate the used DMAy */
  if ((DMAy_FLAG & FLAG_Mask) != (uint32_t)RESET)
 8000550:	687b      	ldr	r3, [r7, #4]
 8000552:	f003 5380 	and.w	r3, r3, #268435456	; 0x10000000
 8000556:	2b00      	cmp	r3, #0
 8000558:	d003      	beq.n	8000562 <DMA_ClearFlag+0x1a>
  {
    /* Clear the selected DMAy flags */
    DMA2->IFCR = DMAy_FLAG;
 800055a:	4a06      	ldr	r2, [pc, #24]	; (8000574 <DMA_ClearFlag+0x2c>)
 800055c:	687b      	ldr	r3, [r7, #4]
 800055e:	6053      	str	r3, [r2, #4]
  else
  {
    /* Clear the selected DMAy flags */
    DMA1->IFCR = DMAy_FLAG;
  }
}
 8000560:	e002      	b.n	8000568 <DMA_ClearFlag+0x20>
    DMA1->IFCR = DMAy_FLAG;
 8000562:	4a05      	ldr	r2, [pc, #20]	; (8000578 <DMA_ClearFlag+0x30>)
 8000564:	687b      	ldr	r3, [r7, #4]
 8000566:	6053      	str	r3, [r2, #4]
}
 8000568:	bf00      	nop
 800056a:	370c      	adds	r7, #12
 800056c:	46bd      	mov	sp, r7
 800056e:	bc80      	pop	{r7}
 8000570:	4770      	bx	lr
 8000572:	bf00      	nop
 8000574:	40020400 	.word	0x40020400
 8000578:	40020000 	.word	0x40020000

0800057c <GPIO_Init>:
  * @param  GPIO_InitStruct: pointer to a GPIO_InitTypeDef structure that
  *         contains the configuration information for the specified GPIO peripheral.
  * @retval None
  */
void GPIO_Init(GPIO_TypeDef* GPIOx, GPIO_InitTypeDef* GPIO_InitStruct)
{
 800057c:	b480      	push	{r7}
 800057e:	b089      	sub	sp, #36	; 0x24
 8000580:	af00      	add	r7, sp, #0
 8000582:	6078      	str	r0, [r7, #4]
 8000584:	6039      	str	r1, [r7, #0]
  uint32_t currentmode = 0x00, currentpin = 0x00, pinpos = 0x00, pos = 0x00;
 8000586:	2300      	movs	r3, #0
 8000588:	61fb      	str	r3, [r7, #28]
 800058a:	2300      	movs	r3, #0
 800058c:	613b      	str	r3, [r7, #16]
 800058e:	2300      	movs	r3, #0
 8000590:	61bb      	str	r3, [r7, #24]
 8000592:	2300      	movs	r3, #0
 8000594:	60fb      	str	r3, [r7, #12]
  uint32_t tmpreg = 0x00, pinmask = 0x00;
 8000596:	2300      	movs	r3, #0
 8000598:	617b      	str	r3, [r7, #20]
 800059a:	2300      	movs	r3, #0
 800059c:	60bb      	str	r3, [r7, #8]
  assert_param(IS_GPIO_ALL_PERIPH(GPIOx));
  assert_param(IS_GPIO_MODE(GPIO_InitStruct->GPIO_Mode));
  assert_param(IS_GPIO_PIN(GPIO_InitStruct->GPIO_Pin));  
  
/*---------------------------- GPIO Mode Configuration -----------------------*/
  currentmode = ((uint32_t)GPIO_InitStruct->GPIO_Mode) & ((uint32_t)0x0F);
 800059e:	683b      	ldr	r3, [r7, #0]
 80005a0:	78db      	ldrb	r3, [r3, #3]
 80005a2:	f003 030f 	and.w	r3, r3, #15
 80005a6:	61fb      	str	r3, [r7, #28]
  if ((((uint32_t)GPIO_InitStruct->GPIO_Mode) & ((uint32_t)0x10)) != 0x00)
 80005a8:	683b      	ldr	r3, [r7, #0]
 80005aa:	78db      	ldrb	r3, [r3, #3]
 80005ac:	f003 0310 	and.w	r3, r3, #16
 80005b0:	2b00      	cmp	r3, #0
 80005b2:	d005      	beq.n	80005c0 <GPIO_Init+0x44>
  { 
    /* Check the parameters */
    assert_param(IS_GPIO_SPEED(GPIO_InitStruct->GPIO_Speed));
    /* Output mode */
    currentmode |= (uint32_t)GPIO_InitStruct->GPIO_Speed;
 80005b4:	683b      	ldr	r3, [r7, #0]
 80005b6:	789b      	ldrb	r3, [r3, #2]
 80005b8:	461a      	mov	r2, r3
 80005ba:	69fb      	ldr	r3, [r7, #28]
 80005bc:	4313      	orrs	r3, r2
 80005be:	61fb      	str	r3, [r7, #28]
  }
/*---------------------------- GPIO CRL Configuration ------------------------*/
  /* Configure the eight low port pins */
  if (((uint32_t)GPIO_InitStruct->GPIO_Pin & ((uint32_t)0x00FF)) != 0x00)
 80005c0:	683b      	ldr	r3, [r7, #0]
 80005c2:	881b      	ldrh	r3, [r3, #0]
 80005c4:	b2db      	uxtb	r3, r3
 80005c6:	2b00      	cmp	r3, #0
 80005c8:	d044      	beq.n	8000654 <GPIO_Init+0xd8>
  {
    tmpreg = GPIOx->CRL;
 80005ca:	687b      	ldr	r3, [r7, #4]
 80005cc:	681b      	ldr	r3, [r3, #0]
 80005ce:	617b      	str	r3, [r7, #20]
    for (pinpos = 0x00; pinpos < 0x08; pinpos++)
 80005d0:	2300      	movs	r3, #0
 80005d2:	61bb      	str	r3, [r7, #24]
 80005d4:	e038      	b.n	8000648 <GPIO_Init+0xcc>
    {
      pos = ((uint32_t)0x01) << pinpos;
 80005d6:	2201      	movs	r2, #1
 80005d8:	69bb      	ldr	r3, [r7, #24]
 80005da:	fa02 f303 	lsl.w	r3, r2, r3
 80005de:	60fb      	str	r3, [r7, #12]
      /* Get the port pins position */
      currentpin = (GPIO_InitStruct->GPIO_Pin) & pos;
 80005e0:	683b      	ldr	r3, [r7, #0]
 80005e2:	881b      	ldrh	r3, [r3, #0]
 80005e4:	461a      	mov	r2, r3
 80005e6:	68fb      	ldr	r3, [r7, #12]
 80005e8:	4013      	ands	r3, r2
 80005ea:	613b      	str	r3, [r7, #16]
      if (currentpin == pos)
 80005ec:	693a      	ldr	r2, [r7, #16]
 80005ee:	68fb      	ldr	r3, [r7, #12]
 80005f0:	429a      	cmp	r2, r3
 80005f2:	d126      	bne.n	8000642 <GPIO_Init+0xc6>
      {
        pos = pinpos << 2;
 80005f4:	69bb      	ldr	r3, [r7, #24]
 80005f6:	009b      	lsls	r3, r3, #2
 80005f8:	60fb      	str	r3, [r7, #12]
        /* Clear the corresponding low control register bits */
        pinmask = ((uint32_t)0x0F) << pos;
 80005fa:	220f      	movs	r2, #15
 80005fc:	68fb      	ldr	r3, [r7, #12]
 80005fe:	fa02 f303 	lsl.w	r3, r2, r3
 8000602:	60bb      	str	r3, [r7, #8]
        tmpreg &= ~pinmask;
 8000604:	68bb      	ldr	r3, [r7, #8]
 8000606:	43db      	mvns	r3, r3
 8000608:	697a      	ldr	r2, [r7, #20]
 800060a:	4013      	ands	r3, r2
 800060c:	617b      	str	r3, [r7, #20]
        /* Write the mode configuration in the corresponding bits */
        tmpreg |= (currentmode << pos);
 800060e:	69fa      	ldr	r2, [r7, #28]
 8000610:	68fb      	ldr	r3, [r7, #12]
 8000612:	fa02 f303 	lsl.w	r3, r2, r3
 8000616:	697a      	ldr	r2, [r7, #20]
 8000618:	4313      	orrs	r3, r2
 800061a:	617b      	str	r3, [r7, #20]
        /* Reset the corresponding ODR bit */
        if (GPIO_InitStruct->GPIO_Mode == GPIO_Mode_IPD)
 800061c:	683b      	ldr	r3, [r7, #0]
 800061e:	78db      	ldrb	r3, [r3, #3]
 8000620:	2b28      	cmp	r3, #40	; 0x28
 8000622:	d105      	bne.n	8000630 <GPIO_Init+0xb4>
        {
          GPIOx->BRR = (((uint32_t)0x01) << pinpos);
 8000624:	2201      	movs	r2, #1
 8000626:	69bb      	ldr	r3, [r7, #24]
 8000628:	409a      	lsls	r2, r3
 800062a:	687b      	ldr	r3, [r7, #4]
 800062c:	615a      	str	r2, [r3, #20]
 800062e:	e008      	b.n	8000642 <GPIO_Init+0xc6>
        }
        else
        {
          /* Set the corresponding ODR bit */
          if (GPIO_InitStruct->GPIO_Mode == GPIO_Mode_IPU)
 8000630:	683b      	ldr	r3, [r7, #0]
 8000632:	78db      	ldrb	r3, [r3, #3]
 8000634:	2b48      	cmp	r3, #72	; 0x48
 8000636:	d104      	bne.n	8000642 <GPIO_Init+0xc6>
          {
            GPIOx->BSRR = (((uint32_t)0x01) << pinpos);
 8000638:	2201      	movs	r2, #1
 800063a:	69bb      	ldr	r3, [r7, #24]
 800063c:	409a      	lsls	r2, r3
 800063e:	687b      	ldr	r3, [r7, #4]
 8000640:	611a      	str	r2, [r3, #16]
    for (pinpos = 0x00; pinpos < 0x08; pinpos++)
 8000642:	69bb      	ldr	r3, [r7, #24]
 8000644:	3301      	adds	r3, #1
 8000646:	61bb      	str	r3, [r7, #24]
 8000648:	69bb      	ldr	r3, [r7, #24]
 800064a:	2b07      	cmp	r3, #7
 800064c:	d9c3      	bls.n	80005d6 <GPIO_Init+0x5a>
          }
        }
      }
    }
    GPIOx->CRL = tmpreg;
 800064e:	687b      	ldr	r3, [r7, #4]
 8000650:	697a      	ldr	r2, [r7, #20]
 8000652:	601a      	str	r2, [r3, #0]
  }
/*---------------------------- GPIO CRH Configuration ------------------------*/
  /* Configure the eight high port pins */
  if (GPIO_InitStruct->GPIO_Pin > 0x00FF)
 8000654:	683b      	ldr	r3, [r7, #0]
 8000656:	881b      	ldrh	r3, [r3, #0]
 8000658:	2bff      	cmp	r3, #255	; 0xff
 800065a:	d946      	bls.n	80006ea <GPIO_Init+0x16e>
  {
    tmpreg = GPIOx->CRH;
 800065c:	687b      	ldr	r3, [r7, #4]
 800065e:	685b      	ldr	r3, [r3, #4]
 8000660:	617b      	str	r3, [r7, #20]
    for (pinpos = 0x00; pinpos < 0x08; pinpos++)
 8000662:	2300      	movs	r3, #0
 8000664:	61bb      	str	r3, [r7, #24]
 8000666:	e03a      	b.n	80006de <GPIO_Init+0x162>
    {
      pos = (((uint32_t)0x01) << (pinpos + 0x08));
 8000668:	69bb      	ldr	r3, [r7, #24]
 800066a:	3308      	adds	r3, #8
 800066c:	2201      	movs	r2, #1
 800066e:	fa02 f303 	lsl.w	r3, r2, r3
 8000672:	60fb      	str	r3, [r7, #12]
      /* Get the port pins position */
      currentpin = ((GPIO_InitStruct->GPIO_Pin) & pos);
 8000674:	683b      	ldr	r3, [r7, #0]
 8000676:	881b      	ldrh	r3, [r3, #0]
 8000678:	461a      	mov	r2, r3
 800067a:	68fb      	ldr	r3, [r7, #12]
 800067c:	4013      	ands	r3, r2
 800067e:	613b      	str	r3, [r7, #16]
      if (currentpin == pos)
 8000680:	693a      	ldr	r2, [r7, #16]
 8000682:	68fb      	ldr	r3, [r7, #12]
 8000684:	429a      	cmp	r2, r3
 8000686:	d127      	bne.n	80006d8 <GPIO_Init+0x15c>
      {
        pos = pinpos << 2;
 8000688:	69bb      	ldr	r3, [r7, #24]
 800068a:	009b      	lsls	r3, r3, #2
 800068c:	60fb      	str	r3, [r7, #12]
        /* Clear the corresponding high control register bits */
        pinmask = ((uint32_t)0x0F) << pos;
 800068e:	220f      	movs	r2, #15
 8000690:	68fb      	ldr	r3, [r7, #12]
 8000692:	fa02 f303 	lsl.w	r3, r2, r3
 8000696:	60bb      	str	r3, [r7, #8]
        tmpreg &= ~pinmask;
 8000698:	68bb      	ldr	r3, [r7, #8]
 800069a:	43db      	mvns	r3, r3
 800069c:	697a      	ldr	r2, [r7, #20]
 800069e:	4013      	ands	r3, r2
 80006a0:	617b      	str	r3, [r7, #20]
        /* Write the mode configuration in the corresponding bits */
        tmpreg |= (currentmode << pos);
 80006a2:	69fa      	ldr	r2, [r7, #28]
 80006a4:	68fb      	ldr	r3, [r7, #12]
 80006a6:	fa02 f303 	lsl.w	r3, r2, r3
 80006aa:	697a      	ldr	r2, [r7, #20]
 80006ac:	4313      	orrs	r3, r2
 80006ae:	617b      	str	r3, [r7, #20]
        /* Reset the corresponding ODR bit */
        if (GPIO_InitStruct->GPIO_Mode == GPIO_Mode_IPD)
 80006b0:	683b      	ldr	r3, [r7, #0]
 80006b2:	78db      	ldrb	r3, [r3, #3]
 80006b4:	2b28      	cmp	r3, #40	; 0x28
 80006b6:	d105      	bne.n	80006c4 <GPIO_Init+0x148>
        {
          GPIOx->BRR = (((uint32_t)0x01) << (pinpos + 0x08));
 80006b8:	69bb      	ldr	r3, [r7, #24]
 80006ba:	3308      	adds	r3, #8
 80006bc:	2201      	movs	r2, #1
 80006be:	409a      	lsls	r2, r3
 80006c0:	687b      	ldr	r3, [r7, #4]
 80006c2:	615a      	str	r2, [r3, #20]
        }
        /* Set the corresponding ODR bit */
        if (GPIO_InitStruct->GPIO_Mode == GPIO_Mode_IPU)
 80006c4:	683b      	ldr	r3, [r7, #0]
 80006c6:	78db      	ldrb	r3, [r3, #3]
 80006c8:	2b48      	cmp	r3, #72	; 0x48
 80006ca:	d105      	bne.n	80006d8 <GPIO_Init+0x15c>
        {
          GPIOx->BSRR = (((uint32_t)0x01) << (pinpos + 0x08));
 80006cc:	69bb      	ldr	r3, [r7, #24]
 80006ce:	3308      	adds	r3, #8
 80006d0:	2201      	movs	r2, #1
 80006d2:	409a      	lsls	r2, r3
 80006d4:	687b      	ldr	r3, [r7, #4]
 80006d6:	611a      	str	r2, [r3, #16]
    for (pinpos = 0x00; pinpos < 0x08; pinpos++)
 80006d8:	69bb      	ldr	r3, [r7, #24]
 80006da:	3301      	adds	r3, #1
 80006dc:	61bb      	str	r3, [r7, #24]
 80006de:	69bb      	ldr	r3, [r7, #24]
 80006e0:	2b07      	cmp	r3, #7
 80006e2:	d9c1      	bls.n	8000668 <GPIO_Init+0xec>
        }
      }
    }
    GPIOx->CRH = tmpreg;
 80006e4:	687b      	ldr	r3, [r7, #4]
 80006e6:	697a      	ldr	r2, [r7, #20]
 80006e8:	605a      	str	r2, [r3, #4]
  }
}
 80006ea:	bf00      	nop
 80006ec:	3724      	adds	r7, #36	; 0x24
 80006ee:	46bd      	mov	sp, r7
 80006f0:	bc80      	pop	{r7}
 80006f2:	4770      	bx	lr

080006f4 <RCC_GetClocksFreq>:
  * @note   The result of this function could be not correct when using 
  *         fractional value for HSE crystal.  
  * @retval None
  */
void RCC_GetClocksFreq(RCC_ClocksTypeDef* RCC_Clocks)
{
 80006f4:	b480      	push	{r7}
 80006f6:	b087      	sub	sp, #28
 80006f8:	af00      	add	r7, sp, #0
 80006fa:	6078      	str	r0, [r7, #4]
  uint32_t tmp = 0, pllmull = 0, pllsource = 0, presc = 0;
 80006fc:	2300      	movs	r3, #0
 80006fe:	617b      	str	r3, [r7, #20]
 8000700:	2300      	movs	r3, #0
 8000702:	613b      	str	r3, [r7, #16]
 8000704:	2300      	movs	r3, #0
 8000706:	60fb      	str	r3, [r7, #12]
 8000708:	2300      	movs	r3, #0
 800070a:	60bb      	str	r3, [r7, #8]
#if defined (STM32F10X_LD_VL) || defined (STM32F10X_MD_VL) || defined (STM32F10X_HD_VL)
  uint32_t prediv1factor = 0;
#endif
    
  /* Get SYSCLK source -------------------------------------------------------*/
  tmp = RCC->CFGR & CFGR_SWS_Mask;
 800070c:	4b4c      	ldr	r3, [pc, #304]	; (8000840 <RCC_GetClocksFreq+0x14c>)
 800070e:	685b      	ldr	r3, [r3, #4]
 8000710:	f003 030c 	and.w	r3, r3, #12
 8000714:	617b      	str	r3, [r7, #20]
  
  switch (tmp)
 8000716:	697b      	ldr	r3, [r7, #20]
 8000718:	2b04      	cmp	r3, #4
 800071a:	d007      	beq.n	800072c <RCC_GetClocksFreq+0x38>
 800071c:	2b08      	cmp	r3, #8
 800071e:	d009      	beq.n	8000734 <RCC_GetClocksFreq+0x40>
 8000720:	2b00      	cmp	r3, #0
 8000722:	d133      	bne.n	800078c <RCC_GetClocksFreq+0x98>
  {
    case 0x00:  /* HSI used as system clock */
      RCC_Clocks->SYSCLK_Frequency = HSI_VALUE;
 8000724:	687b      	ldr	r3, [r7, #4]
 8000726:	4a47      	ldr	r2, [pc, #284]	; (8000844 <RCC_GetClocksFreq+0x150>)
 8000728:	601a      	str	r2, [r3, #0]
      break;
 800072a:	e033      	b.n	8000794 <RCC_GetClocksFreq+0xa0>
    case 0x04:  /* HSE used as system clock */
      RCC_Clocks->SYSCLK_Frequency = HSE_VALUE;
 800072c:	687b      	ldr	r3, [r7, #4]
 800072e:	4a45      	ldr	r2, [pc, #276]	; (8000844 <RCC_GetClocksFreq+0x150>)
 8000730:	601a      	str	r2, [r3, #0]
      break;
 8000732:	e02f      	b.n	8000794 <RCC_GetClocksFreq+0xa0>
    case 0x08:  /* PLL used as system clock */

      /* Get PLL clock source and multiplication factor ----------------------*/
      pllmull = RCC->CFGR & CFGR_PLLMull_Mask;
 8000734:	4b42      	ldr	r3, [pc, #264]	; (8000840 <RCC_GetClocksFreq+0x14c>)
 8000736:	685b      	ldr	r3, [r3, #4]
 8000738:	f403 1370 	and.w	r3, r3, #3932160	; 0x3c0000
 800073c:	613b      	str	r3, [r7, #16]
      pllsource = RCC->CFGR & CFGR_PLLSRC_Mask;
 800073e:	4b40      	ldr	r3, [pc, #256]	; (8000840 <RCC_GetClocksFreq+0x14c>)
 8000740:	685b      	ldr	r3, [r3, #4]
 8000742:	f403 3380 	and.w	r3, r3, #65536	; 0x10000
 8000746:	60fb      	str	r3, [r7, #12]
      
#ifndef STM32F10X_CL      
      pllmull = ( pllmull >> 18) + 2;
 8000748:	693b      	ldr	r3, [r7, #16]
 800074a:	0c9b      	lsrs	r3, r3, #18
 800074c:	3302      	adds	r3, #2
 800074e:	613b      	str	r3, [r7, #16]
      
      if (pllsource == 0x00)
 8000750:	68fb      	ldr	r3, [r7, #12]
 8000752:	2b00      	cmp	r3, #0
 8000754:	d106      	bne.n	8000764 <RCC_GetClocksFreq+0x70>
      {/* HSI oscillator clock divided by 2 selected as PLL clock entry */
        RCC_Clocks->SYSCLK_Frequency = (HSI_VALUE >> 1) * pllmull;
 8000756:	693b      	ldr	r3, [r7, #16]
 8000758:	4a3b      	ldr	r2, [pc, #236]	; (8000848 <RCC_GetClocksFreq+0x154>)
 800075a:	fb02 f203 	mul.w	r2, r2, r3
 800075e:	687b      	ldr	r3, [r7, #4]
 8000760:	601a      	str	r2, [r3, #0]
          pll2mull = ((RCC->CFGR2 & CFGR2_PLL2MUL) >> 8 ) + 2; 
          RCC_Clocks->SYSCLK_Frequency = (((HSE_VALUE / prediv2factor) * pll2mull) / prediv1factor) * pllmull;                         
        }
      }
#endif /* STM32F10X_CL */ 
      break;
 8000762:	e017      	b.n	8000794 <RCC_GetClocksFreq+0xa0>
        if ((RCC->CFGR & CFGR_PLLXTPRE_Mask) != (uint32_t)RESET)
 8000764:	4b36      	ldr	r3, [pc, #216]	; (8000840 <RCC_GetClocksFreq+0x14c>)
 8000766:	685b      	ldr	r3, [r3, #4]
 8000768:	f403 3300 	and.w	r3, r3, #131072	; 0x20000
 800076c:	2b00      	cmp	r3, #0
 800076e:	d006      	beq.n	800077e <RCC_GetClocksFreq+0x8a>
          RCC_Clocks->SYSCLK_Frequency = (HSE_VALUE >> 1) * pllmull;
 8000770:	693b      	ldr	r3, [r7, #16]
 8000772:	4a35      	ldr	r2, [pc, #212]	; (8000848 <RCC_GetClocksFreq+0x154>)
 8000774:	fb02 f203 	mul.w	r2, r2, r3
 8000778:	687b      	ldr	r3, [r7, #4]
 800077a:	601a      	str	r2, [r3, #0]
      break;
 800077c:	e00a      	b.n	8000794 <RCC_GetClocksFreq+0xa0>
          RCC_Clocks->SYSCLK_Frequency = HSE_VALUE * pllmull;
 800077e:	693b      	ldr	r3, [r7, #16]
 8000780:	4a30      	ldr	r2, [pc, #192]	; (8000844 <RCC_GetClocksFreq+0x150>)
 8000782:	fb02 f203 	mul.w	r2, r2, r3
 8000786:	687b      	ldr	r3, [r7, #4]
 8000788:	601a      	str	r2, [r3, #0]
      break;
 800078a:	e003      	b.n	8000794 <RCC_GetClocksFreq+0xa0>

    default:
      RCC_Clocks->SYSCLK_Frequency = HSI_VALUE;
 800078c:	687b      	ldr	r3, [r7, #4]
 800078e:	4a2d      	ldr	r2, [pc, #180]	; (8000844 <RCC_GetClocksFreq+0x150>)
 8000790:	601a      	str	r2, [r3, #0]
      break;
 8000792:	bf00      	nop
  }

  /* Compute HCLK, PCLK1, PCLK2 and ADCCLK clocks frequencies ----------------*/
  /* Get HCLK prescaler */
  tmp = RCC->CFGR & CFGR_HPRE_Set_Mask;
 8000794:	4b2a      	ldr	r3, [pc, #168]	; (8000840 <RCC_GetClocksFreq+0x14c>)
 8000796:	685b      	ldr	r3, [r3, #4]
 8000798:	f003 03f0 	and.w	r3, r3, #240	; 0xf0
 800079c:	617b      	str	r3, [r7, #20]
  tmp = tmp >> 4;
 800079e:	697b      	ldr	r3, [r7, #20]
 80007a0:	091b      	lsrs	r3, r3, #4
 80007a2:	617b      	str	r3, [r7, #20]
  presc = APBAHBPrescTable[tmp];
 80007a4:	4a29      	ldr	r2, [pc, #164]	; (800084c <RCC_GetClocksFreq+0x158>)
 80007a6:	697b      	ldr	r3, [r7, #20]
 80007a8:	4413      	add	r3, r2
 80007aa:	781b      	ldrb	r3, [r3, #0]
 80007ac:	b2db      	uxtb	r3, r3
 80007ae:	60bb      	str	r3, [r7, #8]
  /* HCLK clock frequency */
  RCC_Clocks->HCLK_Frequency = RCC_Clocks->SYSCLK_Frequency >> presc;
 80007b0:	687b      	ldr	r3, [r7, #4]
 80007b2:	681a      	ldr	r2, [r3, #0]
 80007b4:	68bb      	ldr	r3, [r7, #8]
 80007b6:	40da      	lsrs	r2, r3
 80007b8:	687b      	ldr	r3, [r7, #4]
 80007ba:	605a      	str	r2, [r3, #4]
  /* Get PCLK1 prescaler */
  tmp = RCC->CFGR & CFGR_PPRE1_Set_Mask;
 80007bc:	4b20      	ldr	r3, [pc, #128]	; (8000840 <RCC_GetClocksFreq+0x14c>)
 80007be:	685b      	ldr	r3, [r3, #4]
 80007c0:	f403 63e0 	and.w	r3, r3, #1792	; 0x700
 80007c4:	617b      	str	r3, [r7, #20]
  tmp = tmp >> 8;
 80007c6:	697b      	ldr	r3, [r7, #20]
 80007c8:	0a1b      	lsrs	r3, r3, #8
 80007ca:	617b      	str	r3, [r7, #20]
  presc = APBAHBPrescTable[tmp];
 80007cc:	4a1f      	ldr	r2, [pc, #124]	; (800084c <RCC_GetClocksFreq+0x158>)
 80007ce:	697b      	ldr	r3, [r7, #20]
 80007d0:	4413      	add	r3, r2
 80007d2:	781b      	ldrb	r3, [r3, #0]
 80007d4:	b2db      	uxtb	r3, r3
 80007d6:	60bb      	str	r3, [r7, #8]
  /* PCLK1 clock frequency */
  RCC_Clocks->PCLK1_Frequency = RCC_Clocks->HCLK_Frequency >> presc;
 80007d8:	687b      	ldr	r3, [r7, #4]
 80007da:	685a      	ldr	r2, [r3, #4]
 80007dc:	68bb      	ldr	r3, [r7, #8]
 80007de:	40da      	lsrs	r2, r3
 80007e0:	687b      	ldr	r3, [r7, #4]
 80007e2:	609a      	str	r2, [r3, #8]
  /* Get PCLK2 prescaler */
  tmp = RCC->CFGR & CFGR_PPRE2_Set_Mask;
 80007e4:	4b16      	ldr	r3, [pc, #88]	; (8000840 <RCC_GetClocksFreq+0x14c>)
 80007e6:	685b      	ldr	r3, [r3, #4]
 80007e8:	f403 5360 	and.w	r3, r3, #14336	; 0x3800
 80007ec:	617b      	str	r3, [r7, #20]
  tmp = tmp >> 11;
 80007ee:	697b      	ldr	r3, [r7, #20]
 80007f0:	0adb      	lsrs	r3, r3, #11
 80007f2:	617b      	str	r3, [r7, #20]
  presc = APBAHBPrescTable[tmp];
 80007f4:	4a15      	ldr	r2, [pc, #84]	; (800084c <RCC_GetClocksFreq+0x158>)
 80007f6:	697b      	ldr	r3, [r7, #20]
 80007f8:	4413      	add	r3, r2
 80007fa:	781b      	ldrb	r3, [r3, #0]
 80007fc:	b2db      	uxtb	r3, r3
 80007fe:	60bb      	str	r3, [r7, #8]
  /* PCLK2 clock frequency */
  RCC_Clocks->PCLK2_Frequency = RCC_Clocks->HCLK_Frequency >> presc;
 8000800:	687b      	ldr	r3, [r7, #4]
 8000802:	685a      	ldr	r2, [r3, #4]
 8000804:	68bb      	ldr	r3, [r7, #8]
 8000806:	40da      	lsrs	r2, r3
 8000808:	687b      	ldr	r3, [r7, #4]
 800080a:	60da      	str	r2, [r3, #12]
  /* Get ADCCLK prescaler */
  tmp = RCC->CFGR & CFGR_ADCPRE_Set_Mask;
 800080c:	4b0c      	ldr	r3, [pc, #48]	; (8000840 <RCC_GetClocksFreq+0x14c>)
 800080e:	685b      	ldr	r3, [r3, #4]
 8000810:	f403 4340 	and.w	r3, r3, #49152	; 0xc000
 8000814:	617b      	str	r3, [r7, #20]
  tmp = tmp >> 14;
 8000816:	697b      	ldr	r3, [r7, #20]
 8000818:	0b9b      	lsrs	r3, r3, #14
 800081a:	617b      	str	r3, [r7, #20]
  presc = ADCPrescTable[tmp];
 800081c:	4a0c      	ldr	r2, [pc, #48]	; (8000850 <RCC_GetClocksFreq+0x15c>)
 800081e:	697b      	ldr	r3, [r7, #20]
 8000820:	4413      	add	r3, r2
 8000822:	781b      	ldrb	r3, [r3, #0]
 8000824:	b2db      	uxtb	r3, r3
 8000826:	60bb      	str	r3, [r7, #8]
  /* ADCCLK clock frequency */
  RCC_Clocks->ADCCLK_Frequency = RCC_Clocks->PCLK2_Frequency / presc;
 8000828:	687b      	ldr	r3, [r7, #4]
 800082a:	68da      	ldr	r2, [r3, #12]
 800082c:	68bb      	ldr	r3, [r7, #8]
 800082e:	fbb2 f2f3 	udiv	r2, r2, r3
 8000832:	687b      	ldr	r3, [r7, #4]
 8000834:	611a      	str	r2, [r3, #16]
}
 8000836:	bf00      	nop
 8000838:	371c      	adds	r7, #28
 800083a:	46bd      	mov	sp, r7
 800083c:	bc80      	pop	{r7}
 800083e:	4770      	bx	lr
 8000840:	40021000 	.word	0x40021000
 8000844:	007a1200 	.word	0x007a1200
 8000848:	003d0900 	.word	0x003d0900
 800084c:	20000000 	.word	0x20000000
 8000850:	20000010 	.word	0x20000010

08000854 <RCC_AHBPeriphClockCmd>:
  * @param  NewState: new state of the specified peripheral clock.
  *   This parameter can be: ENABLE or DISABLE.
  * @retval None
  */
void RCC_AHBPeriphClockCmd(uint32_t RCC_AHBPeriph, FunctionalState NewState)
{
 8000854:	b480      	push	{r7}
 8000856:	b083      	sub	sp, #12
 8000858:	af00      	add	r7, sp, #0
 800085a:	6078      	str	r0, [r7, #4]
 800085c:	460b      	mov	r3, r1
 800085e:	70fb      	strb	r3, [r7, #3]
  /* Check the parameters */
  assert_param(IS_RCC_AHB_PERIPH(RCC_AHBPeriph));
  assert_param(IS_FUNCTIONAL_STATE(NewState));

  if (NewState != DISABLE)
 8000860:	78fb      	ldrb	r3, [r7, #3]
 8000862:	2b00      	cmp	r3, #0
 8000864:	d006      	beq.n	8000874 <RCC_AHBPeriphClockCmd+0x20>
  {
    RCC->AHBENR |= RCC_AHBPeriph;
 8000866:	4909      	ldr	r1, [pc, #36]	; (800088c <RCC_AHBPeriphClockCmd+0x38>)
 8000868:	4b08      	ldr	r3, [pc, #32]	; (800088c <RCC_AHBPeriphClockCmd+0x38>)
 800086a:	695a      	ldr	r2, [r3, #20]
 800086c:	687b      	ldr	r3, [r7, #4]
 800086e:	4313      	orrs	r3, r2
 8000870:	614b      	str	r3, [r1, #20]
  }
  else
  {
    RCC->AHBENR &= ~RCC_AHBPeriph;
  }
}
 8000872:	e006      	b.n	8000882 <RCC_AHBPeriphClockCmd+0x2e>
    RCC->AHBENR &= ~RCC_AHBPeriph;
 8000874:	4905      	ldr	r1, [pc, #20]	; (800088c <RCC_AHBPeriphClockCmd+0x38>)
 8000876:	4b05      	ldr	r3, [pc, #20]	; (800088c <RCC_AHBPeriphClockCmd+0x38>)
 8000878:	695a      	ldr	r2, [r3, #20]
 800087a:	687b      	ldr	r3, [r7, #4]
 800087c:	43db      	mvns	r3, r3
 800087e:	4013      	ands	r3, r2
 8000880:	614b      	str	r3, [r1, #20]
}
 8000882:	bf00      	nop
 8000884:	370c      	adds	r7, #12
 8000886:	46bd      	mov	sp, r7
 8000888:	bc80      	pop	{r7}
 800088a:	4770      	bx	lr
 800088c:	40021000 	.word	0x40021000

08000890 <RCC_APB2PeriphClockCmd>:
  * @param  NewState: new state of the specified peripheral clock.
  *   This parameter can be: ENABLE or DISABLE.
  * @retval None
  */
void RCC_APB2PeriphClockCmd(uint32_t RCC_APB2Periph, FunctionalState NewState)
{
 8000890:	b480      	push	{r7}
 8000892:	b083      	sub	sp, #12
 8000894:	af00      	add	r7, sp, #0
 8000896:	6078      	str	r0, [r7, #4]
 8000898:	460b      	mov	r3, r1
 800089a:	70fb      	strb	r3, [r7, #3]
  /* Check the parameters */
  assert_param(IS_RCC_APB2_PERIPH(RCC_APB2Periph));
  assert_param(IS_FUNCTIONAL_STATE(NewState));
  if (NewState != DISABLE)
 800089c:	78fb      	ldrb	r3, [r7, #3]
 800089e:	2b00      	cmp	r3, #0
 80008a0:	d006      	beq.n	80008b0 <RCC_APB2PeriphClockCmd+0x20>
  {
    RCC->APB2ENR |= RCC_APB2Periph;
 80008a2:	4909      	ldr	r1, [pc, #36]	; (80008c8 <RCC_APB2PeriphClockCmd+0x38>)
 80008a4:	4b08      	ldr	r3, [pc, #32]	; (80008c8 <RCC_APB2PeriphClockCmd+0x38>)
 80008a6:	699a      	ldr	r2, [r3, #24]
 80008a8:	687b      	ldr	r3, [r7, #4]
 80008aa:	4313      	orrs	r3, r2
 80008ac:	618b      	str	r3, [r1, #24]
  }
  else
  {
    RCC->APB2ENR &= ~RCC_APB2Periph;
  }
}
 80008ae:	e006      	b.n	80008be <RCC_APB2PeriphClockCmd+0x2e>
    RCC->APB2ENR &= ~RCC_APB2Periph;
 80008b0:	4905      	ldr	r1, [pc, #20]	; (80008c8 <RCC_APB2PeriphClockCmd+0x38>)
 80008b2:	4b05      	ldr	r3, [pc, #20]	; (80008c8 <RCC_APB2PeriphClockCmd+0x38>)
 80008b4:	699a      	ldr	r2, [r3, #24]
 80008b6:	687b      	ldr	r3, [r7, #4]
 80008b8:	43db      	mvns	r3, r3
 80008ba:	4013      	ands	r3, r2
 80008bc:	618b      	str	r3, [r1, #24]
}
 80008be:	bf00      	nop
 80008c0:	370c      	adds	r7, #12
 80008c2:	46bd      	mov	sp, r7
 80008c4:	bc80      	pop	{r7}
 80008c6:	4770      	bx	lr
 80008c8:	40021000 	.word	0x40021000

080008cc <RCC_APB1PeriphClockCmd>:
  * @param  NewState: new state of the specified peripheral clock.
  *   This parameter can be: ENABLE or DISABLE.
  * @retval None
  */
void RCC_APB1PeriphClockCmd(uint32_t RCC_APB1Periph, FunctionalState NewState)
{
 80008cc:	b480      	push	{r7}
 80008ce:	b083      	sub	sp, #12
 80008d0:	af00      	add	r7, sp, #0
 80008d2:	6078      	str	r0, [r7, #4]
 80008d4:	460b      	mov	r3, r1
 80008d6:	70fb      	strb	r3, [r7, #3]
  /* Check the parameters */
  assert_param(IS_RCC_APB1_PERIPH(RCC_APB1Periph));
  assert_param(IS_FUNCTIONAL_STATE(NewState));
  if (NewState != DISABLE)
 80008d8:	78fb      	ldrb	r3, [r7, #3]
 80008da:	2b00      	cmp	r3, #0
 80008dc:	d006      	beq.n	80008ec <RCC_APB1PeriphClockCmd+0x20>
  {
    RCC->APB1ENR |= RCC_APB1Periph;
 80008de:	4909      	ldr	r1, [pc, #36]	; (8000904 <RCC_APB1PeriphClockCmd+0x38>)
 80008e0:	4b08      	ldr	r3, [pc, #32]	; (8000904 <RCC_APB1PeriphClockCmd+0x38>)
 80008e2:	69da      	ldr	r2, [r3, #28]
 80008e4:	687b      	ldr	r3, [r7, #4]
 80008e6:	4313      	orrs	r3, r2
 80008e8:	61cb      	str	r3, [r1, #28]
  }
  else
  {
    RCC->APB1ENR &= ~RCC_APB1Periph;
  }
}
 80008ea:	e006      	b.n	80008fa <RCC_APB1PeriphClockCmd+0x2e>
    RCC->APB1ENR &= ~RCC_APB1Periph;
 80008ec:	4905      	ldr	r1, [pc, #20]	; (8000904 <RCC_APB1PeriphClockCmd+0x38>)
 80008ee:	4b05      	ldr	r3, [pc, #20]	; (8000904 <RCC_APB1PeriphClockCmd+0x38>)
 80008f0:	69da      	ldr	r2, [r3, #28]
 80008f2:	687b      	ldr	r3, [r7, #4]
 80008f4:	43db      	mvns	r3, r3
 80008f6:	4013      	ands	r3, r2
 80008f8:	61cb      	str	r3, [r1, #28]
}
 80008fa:	bf00      	nop
 80008fc:	370c      	adds	r7, #12
 80008fe:	46bd      	mov	sp, r7
 8000900:	bc80      	pop	{r7}
 8000902:	4770      	bx	lr
 8000904:	40021000 	.word	0x40021000

08000908 <USART_Init>:
  *         that contains the configuration information for the specified USART 
  *         peripheral.
  * @retval None
  */
void USART_Init(USART_TypeDef* USARTx, USART_InitTypeDef* USART_InitStruct)
{
 8000908:	b580      	push	{r7, lr}
 800090a:	b08c      	sub	sp, #48	; 0x30
 800090c:	af00      	add	r7, sp, #0
 800090e:	6078      	str	r0, [r7, #4]
 8000910:	6039      	str	r1, [r7, #0]
  uint32_t tmpreg = 0x00, apbclock = 0x00;
 8000912:	2300      	movs	r3, #0
 8000914:	62fb      	str	r3, [r7, #44]	; 0x2c
 8000916:	2300      	movs	r3, #0
 8000918:	62bb      	str	r3, [r7, #40]	; 0x28
  uint32_t integerdivider = 0x00;
 800091a:	2300      	movs	r3, #0
 800091c:	627b      	str	r3, [r7, #36]	; 0x24
  uint32_t fractionaldivider = 0x00;
 800091e:	2300      	movs	r3, #0
 8000920:	623b      	str	r3, [r7, #32]
  uint32_t usartxbase = 0;
 8000922:	2300      	movs	r3, #0
 8000924:	61fb      	str	r3, [r7, #28]
  if (USART_InitStruct->USART_HardwareFlowControl != USART_HardwareFlowControl_None)
  {
    assert_param(IS_USART_123_PERIPH(USARTx));
  }

  usartxbase = (uint32_t)USARTx;
 8000926:	687b      	ldr	r3, [r7, #4]
 8000928:	61fb      	str	r3, [r7, #28]

/*---------------------------- USART CR2 Configuration -----------------------*/
  tmpreg = USARTx->CR2;
 800092a:	687b      	ldr	r3, [r7, #4]
 800092c:	8a1b      	ldrh	r3, [r3, #16]
 800092e:	b29b      	uxth	r3, r3
 8000930:	62fb      	str	r3, [r7, #44]	; 0x2c
  /* Clear STOP[13:12] bits */
  tmpreg &= CR2_STOP_CLEAR_Mask;
 8000932:	6afa      	ldr	r2, [r7, #44]	; 0x2c
 8000934:	f64c 73ff 	movw	r3, #53247	; 0xcfff
 8000938:	4013      	ands	r3, r2
 800093a:	62fb      	str	r3, [r7, #44]	; 0x2c
  /* Configure the USART Stop Bits, Clock, CPOL, CPHA and LastBit ------------*/
  /* Set STOP[13:12] bits according to USART_StopBits value */
  tmpreg |= (uint32_t)USART_InitStruct->USART_StopBits;
 800093c:	683b      	ldr	r3, [r7, #0]
 800093e:	88db      	ldrh	r3, [r3, #6]
 8000940:	461a      	mov	r2, r3
 8000942:	6afb      	ldr	r3, [r7, #44]	; 0x2c
 8000944:	4313      	orrs	r3, r2
 8000946:	62fb      	str	r3, [r7, #44]	; 0x2c
  
  /* Write to USART CR2 */
  USARTx->CR2 = (uint16_t)tmpreg;
 8000948:	6afb      	ldr	r3, [r7, #44]	; 0x2c
 800094a:	b29a      	uxth	r2, r3
 800094c:	687b      	ldr	r3, [r7, #4]
 800094e:	821a      	strh	r2, [r3, #16]

/*---------------------------- USART CR1 Configuration -----------------------*/
  tmpreg = USARTx->CR1;
 8000950:	687b      	ldr	r3, [r7, #4]
 8000952:	899b      	ldrh	r3, [r3, #12]
 8000954:	b29b      	uxth	r3, r3
 8000956:	62fb      	str	r3, [r7, #44]	; 0x2c
  /* Clear M, PCE, PS, TE and RE bits */
  tmpreg &= CR1_CLEAR_Mask;
 8000958:	6afa      	ldr	r2, [r7, #44]	; 0x2c
 800095a:	f64e 13f3 	movw	r3, #59891	; 0xe9f3
 800095e:	4013      	ands	r3, r2
 8000960:	62fb      	str	r3, [r7, #44]	; 0x2c
  /* Configure the USART Word Length, Parity and mode ----------------------- */
  /* Set the M bits according to USART_WordLength value */
  /* Set PCE and PS bits according to USART_Parity value */
  /* Set TE and RE bits according to USART_Mode value */
  tmpreg |= (uint32_t)USART_InitStruct->USART_WordLength | USART_InitStruct->USART_Parity |
 8000962:	683b      	ldr	r3, [r7, #0]
 8000964:	889a      	ldrh	r2, [r3, #4]
 8000966:	683b      	ldr	r3, [r7, #0]
 8000968:	891b      	ldrh	r3, [r3, #8]
 800096a:	4313      	orrs	r3, r2
 800096c:	b29a      	uxth	r2, r3
            USART_InitStruct->USART_Mode;
 800096e:	683b      	ldr	r3, [r7, #0]
 8000970:	895b      	ldrh	r3, [r3, #10]
  tmpreg |= (uint32_t)USART_InitStruct->USART_WordLength | USART_InitStruct->USART_Parity |
 8000972:	4313      	orrs	r3, r2
 8000974:	b29b      	uxth	r3, r3
 8000976:	461a      	mov	r2, r3
 8000978:	6afb      	ldr	r3, [r7, #44]	; 0x2c
 800097a:	4313      	orrs	r3, r2
 800097c:	62fb      	str	r3, [r7, #44]	; 0x2c
  /* Write to USART CR1 */
  USARTx->CR1 = (uint16_t)tmpreg;
 800097e:	6afb      	ldr	r3, [r7, #44]	; 0x2c
 8000980:	b29a      	uxth	r2, r3
 8000982:	687b      	ldr	r3, [r7, #4]
 8000984:	819a      	strh	r2, [r3, #12]

/*---------------------------- USART CR3 Configuration -----------------------*/  
  tmpreg = USARTx->CR3;
 8000986:	687b      	ldr	r3, [r7, #4]
 8000988:	8a9b      	ldrh	r3, [r3, #20]
 800098a:	b29b      	uxth	r3, r3
 800098c:	62fb      	str	r3, [r7, #44]	; 0x2c
  /* Clear CTSE and RTSE bits */
  tmpreg &= CR3_CLEAR_Mask;
 800098e:	6afa      	ldr	r2, [r7, #44]	; 0x2c
 8000990:	f64f 43ff 	movw	r3, #64767	; 0xfcff
 8000994:	4013      	ands	r3, r2
 8000996:	62fb      	str	r3, [r7, #44]	; 0x2c
  /* Configure the USART HFC -------------------------------------------------*/
  /* Set CTSE and RTSE bits according to USART_HardwareFlowControl value */
  tmpreg |= USART_InitStruct->USART_HardwareFlowControl;
 8000998:	683b      	ldr	r3, [r7, #0]
 800099a:	899b      	ldrh	r3, [r3, #12]
 800099c:	461a      	mov	r2, r3
 800099e:	6afb      	ldr	r3, [r7, #44]	; 0x2c
 80009a0:	4313      	orrs	r3, r2
 80009a2:	62fb      	str	r3, [r7, #44]	; 0x2c
  /* Write to USART CR3 */
  USARTx->CR3 = (uint16_t)tmpreg;
 80009a4:	6afb      	ldr	r3, [r7, #44]	; 0x2c
 80009a6:	b29a      	uxth	r2, r3
 80009a8:	687b      	ldr	r3, [r7, #4]
 80009aa:	829a      	strh	r2, [r3, #20]

/*---------------------------- USART BRR Configuration -----------------------*/
  /* Configure the USART Baud Rate -------------------------------------------*/
  RCC_GetClocksFreq(&RCC_ClocksStatus);
 80009ac:	f107 0308 	add.w	r3, r7, #8
 80009b0:	4618      	mov	r0, r3
 80009b2:	f7ff fe9f 	bl	80006f4 <RCC_GetClocksFreq>
  if (usartxbase == USART1_BASE)
 80009b6:	69fb      	ldr	r3, [r7, #28]
 80009b8:	4a2e      	ldr	r2, [pc, #184]	; (8000a74 <USART_Init+0x16c>)
 80009ba:	4293      	cmp	r3, r2
 80009bc:	d102      	bne.n	80009c4 <USART_Init+0xbc>
  {
    apbclock = RCC_ClocksStatus.PCLK2_Frequency;
 80009be:	697b      	ldr	r3, [r7, #20]
 80009c0:	62bb      	str	r3, [r7, #40]	; 0x28
 80009c2:	e001      	b.n	80009c8 <USART_Init+0xc0>
  }
  else
  {
    apbclock = RCC_ClocksStatus.PCLK1_Frequency;
 80009c4:	693b      	ldr	r3, [r7, #16]
 80009c6:	62bb      	str	r3, [r7, #40]	; 0x28
  }
  
  /* Determine the integer part */
  if ((USARTx->CR1 & CR1_OVER8_Set) != 0)
 80009c8:	687b      	ldr	r3, [r7, #4]
 80009ca:	899b      	ldrh	r3, [r3, #12]
 80009cc:	b29b      	uxth	r3, r3
 80009ce:	b21b      	sxth	r3, r3
 80009d0:	2b00      	cmp	r3, #0
 80009d2:	da0c      	bge.n	80009ee <USART_Init+0xe6>
  {
    /* Integer part computing in case Oversampling mode is 8 Samples */
    integerdivider = ((25 * apbclock) / (2 * (USART_InitStruct->USART_BaudRate)));    
 80009d4:	6aba      	ldr	r2, [r7, #40]	; 0x28
 80009d6:	4613      	mov	r3, r2
 80009d8:	009b      	lsls	r3, r3, #2
 80009da:	4413      	add	r3, r2
 80009dc:	009a      	lsls	r2, r3, #2
 80009de:	441a      	add	r2, r3
 80009e0:	683b      	ldr	r3, [r7, #0]
 80009e2:	681b      	ldr	r3, [r3, #0]
 80009e4:	005b      	lsls	r3, r3, #1
 80009e6:	fbb2 f3f3 	udiv	r3, r2, r3
 80009ea:	627b      	str	r3, [r7, #36]	; 0x24
 80009ec:	e00b      	b.n	8000a06 <USART_Init+0xfe>
  }
  else /* if ((USARTx->CR1 & CR1_OVER8_Set) == 0) */
  {
    /* Integer part computing in case Oversampling mode is 16 Samples */
    integerdivider = ((25 * apbclock) / (4 * (USART_InitStruct->USART_BaudRate)));    
 80009ee:	6aba      	ldr	r2, [r7, #40]	; 0x28
 80009f0:	4613      	mov	r3, r2
 80009f2:	009b      	lsls	r3, r3, #2
 80009f4:	4413      	add	r3, r2
 80009f6:	009a      	lsls	r2, r3, #2
 80009f8:	441a      	add	r2, r3
 80009fa:	683b      	ldr	r3, [r7, #0]
 80009fc:	681b      	ldr	r3, [r3, #0]
 80009fe:	009b      	lsls	r3, r3, #2
 8000a00:	fbb2 f3f3 	udiv	r3, r2, r3
 8000a04:	627b      	str	r3, [r7, #36]	; 0x24
  }
  tmpreg = (integerdivider / 100) << 4;
 8000a06:	6a7b      	ldr	r3, [r7, #36]	; 0x24
 8000a08:	4a1b      	ldr	r2, [pc, #108]	; (8000a78 <USART_Init+0x170>)
 8000a0a:	fba2 2303 	umull	r2, r3, r2, r3
 8000a0e:	095b      	lsrs	r3, r3, #5
 8000a10:	011b      	lsls	r3, r3, #4
 8000a12:	62fb      	str	r3, [r7, #44]	; 0x2c

  /* Determine the fractional part */
  fractionaldivider = integerdivider - (100 * (tmpreg >> 4));
 8000a14:	6afb      	ldr	r3, [r7, #44]	; 0x2c
 8000a16:	091b      	lsrs	r3, r3, #4
 8000a18:	2264      	movs	r2, #100	; 0x64
 8000a1a:	fb02 f303 	mul.w	r3, r2, r3
 8000a1e:	6a7a      	ldr	r2, [r7, #36]	; 0x24
 8000a20:	1ad3      	subs	r3, r2, r3
 8000a22:	623b      	str	r3, [r7, #32]

  /* Implement the fractional part in the register */
  if ((USARTx->CR1 & CR1_OVER8_Set) != 0)
 8000a24:	687b      	ldr	r3, [r7, #4]
 8000a26:	899b      	ldrh	r3, [r3, #12]
 8000a28:	b29b      	uxth	r3, r3
 8000a2a:	b21b      	sxth	r3, r3
 8000a2c:	2b00      	cmp	r3, #0
 8000a2e:	da0c      	bge.n	8000a4a <USART_Init+0x142>
  {
    tmpreg |= ((((fractionaldivider * 8) + 50) / 100)) & ((uint8_t)0x07);
 8000a30:	6a3b      	ldr	r3, [r7, #32]
 8000a32:	00db      	lsls	r3, r3, #3
 8000a34:	3332      	adds	r3, #50	; 0x32
 8000a36:	4a10      	ldr	r2, [pc, #64]	; (8000a78 <USART_Init+0x170>)
 8000a38:	fba2 2303 	umull	r2, r3, r2, r3
 8000a3c:	095b      	lsrs	r3, r3, #5
 8000a3e:	f003 0307 	and.w	r3, r3, #7
 8000a42:	6afa      	ldr	r2, [r7, #44]	; 0x2c
 8000a44:	4313      	orrs	r3, r2
 8000a46:	62fb      	str	r3, [r7, #44]	; 0x2c
 8000a48:	e00b      	b.n	8000a62 <USART_Init+0x15a>
  }
  else /* if ((USARTx->CR1 & CR1_OVER8_Set) == 0) */
  {
    tmpreg |= ((((fractionaldivider * 16) + 50) / 100)) & ((uint8_t)0x0F);
 8000a4a:	6a3b      	ldr	r3, [r7, #32]
 8000a4c:	011b      	lsls	r3, r3, #4
 8000a4e:	3332      	adds	r3, #50	; 0x32
 8000a50:	4a09      	ldr	r2, [pc, #36]	; (8000a78 <USART_Init+0x170>)
 8000a52:	fba2 2303 	umull	r2, r3, r2, r3
 8000a56:	095b      	lsrs	r3, r3, #5
 8000a58:	f003 030f 	and.w	r3, r3, #15
 8000a5c:	6afa      	ldr	r2, [r7, #44]	; 0x2c
 8000a5e:	4313      	orrs	r3, r2
 8000a60:	62fb      	str	r3, [r7, #44]	; 0x2c
  }
  
  /* Write to USART BRR */
  USARTx->BRR = (uint16_t)tmpreg;
 8000a62:	6afb      	ldr	r3, [r7, #44]	; 0x2c
 8000a64:	b29a      	uxth	r2, r3
 8000a66:	687b      	ldr	r3, [r7, #4]
 8000a68:	811a      	strh	r2, [r3, #8]
}
 8000a6a:	bf00      	nop
 8000a6c:	3730      	adds	r7, #48	; 0x30
 8000a6e:	46bd      	mov	sp, r7
 8000a70:	bd80      	pop	{r7, pc}
 8000a72:	bf00      	nop
 8000a74:	40013800 	.word	0x40013800
 8000a78:	51eb851f 	.word	0x51eb851f

08000a7c <USART_Cmd>:
  * @param  NewState: new state of the USARTx peripheral.
  *         This parameter can be: ENABLE or DISABLE.
  * @retval None
  */
void USART_Cmd(USART_TypeDef* USARTx, FunctionalState NewState)
{
 8000a7c:	b480      	push	{r7}
 8000a7e:	b083      	sub	sp, #12
 8000a80:	af00      	add	r7, sp, #0
 8000a82:	6078      	str	r0, [r7, #4]
 8000a84:	460b      	mov	r3, r1
 8000a86:	70fb      	strb	r3, [r7, #3]
  /* Check the parameters */
  assert_param(IS_USART_ALL_PERIPH(USARTx));
  assert_param(IS_FUNCTIONAL_STATE(NewState));
  
  if (NewState != DISABLE)
 8000a88:	78fb      	ldrb	r3, [r7, #3]
 8000a8a:	2b00      	cmp	r3, #0
 8000a8c:	d008      	beq.n	8000aa0 <USART_Cmd+0x24>
  {
    /* Enable the selected USART by setting the UE bit in the CR1 register */
    USARTx->CR1 |= CR1_UE_Set;
 8000a8e:	687b      	ldr	r3, [r7, #4]
 8000a90:	899b      	ldrh	r3, [r3, #12]
 8000a92:	b29b      	uxth	r3, r3
 8000a94:	f443 5300 	orr.w	r3, r3, #8192	; 0x2000
 8000a98:	b29a      	uxth	r2, r3
 8000a9a:	687b      	ldr	r3, [r7, #4]
 8000a9c:	819a      	strh	r2, [r3, #12]
  else
  {
    /* Disable the selected USART by clearing the UE bit in the CR1 register */
    USARTx->CR1 &= CR1_UE_Reset;
  }
}
 8000a9e:	e007      	b.n	8000ab0 <USART_Cmd+0x34>
    USARTx->CR1 &= CR1_UE_Reset;
 8000aa0:	687b      	ldr	r3, [r7, #4]
 8000aa2:	899b      	ldrh	r3, [r3, #12]
 8000aa4:	b29b      	uxth	r3, r3
 8000aa6:	f423 5300 	bic.w	r3, r3, #8192	; 0x2000
 8000aaa:	b29a      	uxth	r2, r3
 8000aac:	687b      	ldr	r3, [r7, #4]
 8000aae:	819a      	strh	r2, [r3, #12]
}
 8000ab0:	bf00      	nop
 8000ab2:	370c      	adds	r7, #12
 8000ab4:	46bd      	mov	sp, r7
 8000ab6:	bc80      	pop	{r7}
 8000ab8:	4770      	bx	lr

08000aba <USART_ITConfig>:
  * @param  NewState: new state of the specified USARTx interrupts.
  *   This parameter can be: ENABLE or DISABLE.
  * @retval None
  */
void USART_ITConfig(USART_TypeDef* USARTx, uint16_t USART_IT, FunctionalState NewState)
{
 8000aba:	b480      	push	{r7}
 8000abc:	b087      	sub	sp, #28
 8000abe:	af00      	add	r7, sp, #0
 8000ac0:	6078      	str	r0, [r7, #4]
 8000ac2:	460b      	mov	r3, r1
 8000ac4:	807b      	strh	r3, [r7, #2]
 8000ac6:	4613      	mov	r3, r2
 8000ac8:	707b      	strb	r3, [r7, #1]
  uint32_t usartreg = 0x00, itpos = 0x00, itmask = 0x00;
 8000aca:	2300      	movs	r3, #0
 8000acc:	613b      	str	r3, [r7, #16]
 8000ace:	2300      	movs	r3, #0
 8000ad0:	60fb      	str	r3, [r7, #12]
 8000ad2:	2300      	movs	r3, #0
 8000ad4:	60bb      	str	r3, [r7, #8]
  uint32_t usartxbase = 0x00;
 8000ad6:	2300      	movs	r3, #0
 8000ad8:	617b      	str	r3, [r7, #20]
  if (USART_IT == USART_IT_CTS)
  {
    assert_param(IS_USART_123_PERIPH(USARTx));
  }   
  
  usartxbase = (uint32_t)USARTx;
 8000ada:	687b      	ldr	r3, [r7, #4]
 8000adc:	617b      	str	r3, [r7, #20]

  /* Get the USART register index */
  usartreg = (((uint8_t)USART_IT) >> 0x05);
 8000ade:	887b      	ldrh	r3, [r7, #2]
 8000ae0:	b2db      	uxtb	r3, r3
 8000ae2:	095b      	lsrs	r3, r3, #5
 8000ae4:	b2db      	uxtb	r3, r3
 8000ae6:	613b      	str	r3, [r7, #16]

  /* Get the interrupt position */
  itpos = USART_IT & IT_Mask;
 8000ae8:	887b      	ldrh	r3, [r7, #2]
 8000aea:	f003 031f 	and.w	r3, r3, #31
 8000aee:	60fb      	str	r3, [r7, #12]
  itmask = (((uint32_t)0x01) << itpos);
 8000af0:	2201      	movs	r2, #1
 8000af2:	68fb      	ldr	r3, [r7, #12]
 8000af4:	fa02 f303 	lsl.w	r3, r2, r3
 8000af8:	60bb      	str	r3, [r7, #8]
    
  if (usartreg == 0x01) /* The IT is in CR1 register */
 8000afa:	693b      	ldr	r3, [r7, #16]
 8000afc:	2b01      	cmp	r3, #1
 8000afe:	d103      	bne.n	8000b08 <USART_ITConfig+0x4e>
  {
    usartxbase += 0x0C;
 8000b00:	697b      	ldr	r3, [r7, #20]
 8000b02:	330c      	adds	r3, #12
 8000b04:	617b      	str	r3, [r7, #20]
 8000b06:	e009      	b.n	8000b1c <USART_ITConfig+0x62>
  }
  else if (usartreg == 0x02) /* The IT is in CR2 register */
 8000b08:	693b      	ldr	r3, [r7, #16]
 8000b0a:	2b02      	cmp	r3, #2
 8000b0c:	d103      	bne.n	8000b16 <USART_ITConfig+0x5c>
  {
    usartxbase += 0x10;
 8000b0e:	697b      	ldr	r3, [r7, #20]
 8000b10:	3310      	adds	r3, #16
 8000b12:	617b      	str	r3, [r7, #20]
 8000b14:	e002      	b.n	8000b1c <USART_ITConfig+0x62>
  }
  else /* The IT is in CR3 register */
  {
    usartxbase += 0x14; 
 8000b16:	697b      	ldr	r3, [r7, #20]
 8000b18:	3314      	adds	r3, #20
 8000b1a:	617b      	str	r3, [r7, #20]
  }
  if (NewState != DISABLE)
 8000b1c:	787b      	ldrb	r3, [r7, #1]
 8000b1e:	2b00      	cmp	r3, #0
 8000b20:	d006      	beq.n	8000b30 <USART_ITConfig+0x76>
  {
    *(__IO uint32_t*)usartxbase  |= itmask;
 8000b22:	697b      	ldr	r3, [r7, #20]
 8000b24:	697a      	ldr	r2, [r7, #20]
 8000b26:	6811      	ldr	r1, [r2, #0]
 8000b28:	68ba      	ldr	r2, [r7, #8]
 8000b2a:	430a      	orrs	r2, r1
 8000b2c:	601a      	str	r2, [r3, #0]
  }
  else
  {
    *(__IO uint32_t*)usartxbase &= ~itmask;
  }
}
 8000b2e:	e006      	b.n	8000b3e <USART_ITConfig+0x84>
    *(__IO uint32_t*)usartxbase &= ~itmask;
 8000b30:	697b      	ldr	r3, [r7, #20]
 8000b32:	697a      	ldr	r2, [r7, #20]
 8000b34:	6811      	ldr	r1, [r2, #0]
 8000b36:	68ba      	ldr	r2, [r7, #8]
 8000b38:	43d2      	mvns	r2, r2
 8000b3a:	400a      	ands	r2, r1
 8000b3c:	601a      	str	r2, [r3, #0]
}
 8000b3e:	bf00      	nop
 8000b40:	371c      	adds	r7, #28
 8000b42:	46bd      	mov	sp, r7
 8000b44:	bc80      	pop	{r7}
 8000b46:	4770      	bx	lr

08000b48 <USART_DMACmd>:
  * @note The DMA mode is not available for UART5 except in the STM32
  *       High density value line devices(STM32F10X_HD_VL).  
  * @retval None
  */
void USART_DMACmd(USART_TypeDef* USARTx, uint16_t USART_DMAReq, FunctionalState NewState)
{
 8000b48:	b480      	push	{r7}
 8000b4a:	b083      	sub	sp, #12
 8000b4c:	af00      	add	r7, sp, #0
 8000b4e:	6078      	str	r0, [r7, #4]
 8000b50:	460b      	mov	r3, r1
 8000b52:	807b      	strh	r3, [r7, #2]
 8000b54:	4613      	mov	r3, r2
 8000b56:	707b      	strb	r3, [r7, #1]
  /* Check the parameters */
  assert_param(IS_USART_ALL_PERIPH(USARTx));
  assert_param(IS_USART_DMAREQ(USART_DMAReq));  
  assert_param(IS_FUNCTIONAL_STATE(NewState)); 
  if (NewState != DISABLE)
 8000b58:	787b      	ldrb	r3, [r7, #1]
 8000b5a:	2b00      	cmp	r3, #0
 8000b5c:	d008      	beq.n	8000b70 <USART_DMACmd+0x28>
  {
    /* Enable the DMA transfer for selected requests by setting the DMAT and/or
       DMAR bits in the USART CR3 register */
    USARTx->CR3 |= USART_DMAReq;
 8000b5e:	687b      	ldr	r3, [r7, #4]
 8000b60:	8a9b      	ldrh	r3, [r3, #20]
 8000b62:	b29a      	uxth	r2, r3
 8000b64:	887b      	ldrh	r3, [r7, #2]
 8000b66:	4313      	orrs	r3, r2
 8000b68:	b29a      	uxth	r2, r3
 8000b6a:	687b      	ldr	r3, [r7, #4]
 8000b6c:	829a      	strh	r2, [r3, #20]
  {
    /* Disable the DMA transfer for selected requests by clearing the DMAT and/or
       DMAR bits in the USART CR3 register */
    USARTx->CR3 &= (uint16_t)~USART_DMAReq;
  }
}
 8000b6e:	e009      	b.n	8000b84 <USART_DMACmd+0x3c>
    USARTx->CR3 &= (uint16_t)~USART_DMAReq;
 8000b70:	687b      	ldr	r3, [r7, #4]
 8000b72:	8a9b      	ldrh	r3, [r3, #20]
 8000b74:	b29a      	uxth	r2, r3
 8000b76:	887b      	ldrh	r3, [r7, #2]
 8000b78:	43db      	mvns	r3, r3
 8000b7a:	b29b      	uxth	r3, r3
 8000b7c:	4013      	ands	r3, r2
 8000b7e:	b29a      	uxth	r2, r3
 8000b80:	687b      	ldr	r3, [r7, #4]
 8000b82:	829a      	strh	r2, [r3, #20]
}
 8000b84:	bf00      	nop
 8000b86:	370c      	adds	r7, #12
 8000b88:	46bd      	mov	sp, r7
 8000b8a:	bc80      	pop	{r7}
 8000b8c:	4770      	bx	lr

08000b8e <USART_SendData>:
  *   USART1, USART2, USART3, UART4 or UART5.
  * @param  Data: the data to transmit.
  * @retval None
  */
void USART_SendData(USART_TypeDef* USARTx, uint16_t Data)
{
 8000b8e:	b480      	push	{r7}
 8000b90:	b083      	sub	sp, #12
 8000b92:	af00      	add	r7, sp, #0
 8000b94:	6078      	str	r0, [r7, #4]
 8000b96:	460b      	mov	r3, r1
 8000b98:	807b      	strh	r3, [r7, #2]
  /* Check the parameters */
  assert_param(IS_USART_ALL_PERIPH(USARTx));
  assert_param(IS_USART_DATA(Data)); 
    
  /* Transmit Data */
  USARTx->DR = (Data & (uint16_t)0x01FF);
 8000b9a:	887b      	ldrh	r3, [r7, #2]
 8000b9c:	f3c3 0308 	ubfx	r3, r3, #0, #9
 8000ba0:	b29a      	uxth	r2, r3
 8000ba2:	687b      	ldr	r3, [r7, #4]
 8000ba4:	809a      	strh	r2, [r3, #4]
}
 8000ba6:	bf00      	nop
 8000ba8:	370c      	adds	r7, #12
 8000baa:	46bd      	mov	sp, r7
 8000bac:	bc80      	pop	{r7}
 8000bae:	4770      	bx	lr

08000bb0 <USART_ReceiveData>:
  *   This parameter can be one of the following values:
  *   USART1, USART2, USART3, UART4 or UART5.
  * @retval The received data.
  */
uint16_t USART_ReceiveData(USART_TypeDef* USARTx)
{
 8000bb0:	b480      	push	{r7}
 8000bb2:	b083      	sub	sp, #12
 8000bb4:	af00      	add	r7, sp, #0
 8000bb6:	6078      	str	r0, [r7, #4]
  /* Check the parameters */
  assert_param(IS_USART_ALL_PERIPH(USARTx));
  
  /* Receive Data */
  return (uint16_t)(USARTx->DR & (uint16_t)0x01FF);
 8000bb8:	687b      	ldr	r3, [r7, #4]
 8000bba:	889b      	ldrh	r3, [r3, #4]
 8000bbc:	b29b      	uxth	r3, r3
 8000bbe:	f3c3 0308 	ubfx	r3, r3, #0, #9
 8000bc2:	b29b      	uxth	r3, r3
}
 8000bc4:	4618      	mov	r0, r3
 8000bc6:	370c      	adds	r7, #12
 8000bc8:	46bd      	mov	sp, r7
 8000bca:	bc80      	pop	{r7}
 8000bcc:	4770      	bx	lr

08000bce <USART_GetITStatus>:
  *     @arg USART_IT_FE:   Framing Error interrupt
  *     @arg USART_IT_PE:   Parity Error interrupt
  * @retval The new state of USART_IT (SET or RESET).
  */
ITStatus USART_GetITStatus(USART_TypeDef* USARTx, uint16_t USART_IT)
{
 8000bce:	b480      	push	{r7}
 8000bd0:	b087      	sub	sp, #28
 8000bd2:	af00      	add	r7, sp, #0
 8000bd4:	6078      	str	r0, [r7, #4]
 8000bd6:	460b      	mov	r3, r1
 8000bd8:	807b      	strh	r3, [r7, #2]
  uint32_t bitpos = 0x00, itmask = 0x00, usartreg = 0x00;
 8000bda:	2300      	movs	r3, #0
 8000bdc:	60fb      	str	r3, [r7, #12]
 8000bde:	2300      	movs	r3, #0
 8000be0:	617b      	str	r3, [r7, #20]
 8000be2:	2300      	movs	r3, #0
 8000be4:	60bb      	str	r3, [r7, #8]
  ITStatus bitstatus = RESET;
 8000be6:	2300      	movs	r3, #0
 8000be8:	74fb      	strb	r3, [r7, #19]
  {
    assert_param(IS_USART_123_PERIPH(USARTx));
  }   
  
  /* Get the USART register index */
  usartreg = (((uint8_t)USART_IT) >> 0x05);
 8000bea:	887b      	ldrh	r3, [r7, #2]
 8000bec:	b2db      	uxtb	r3, r3
 8000bee:	095b      	lsrs	r3, r3, #5
 8000bf0:	b2db      	uxtb	r3, r3
 8000bf2:	60bb      	str	r3, [r7, #8]
  /* Get the interrupt position */
  itmask = USART_IT & IT_Mask;
 8000bf4:	887b      	ldrh	r3, [r7, #2]
 8000bf6:	f003 031f 	and.w	r3, r3, #31
 8000bfa:	617b      	str	r3, [r7, #20]
  itmask = (uint32_t)0x01 << itmask;
 8000bfc:	2201      	movs	r2, #1
 8000bfe:	697b      	ldr	r3, [r7, #20]
 8000c00:	fa02 f303 	lsl.w	r3, r2, r3
 8000c04:	617b      	str	r3, [r7, #20]
  
  if (usartreg == 0x01) /* The IT  is in CR1 register */
 8000c06:	68bb      	ldr	r3, [r7, #8]
 8000c08:	2b01      	cmp	r3, #1
 8000c0a:	d107      	bne.n	8000c1c <USART_GetITStatus+0x4e>
  {
    itmask &= USARTx->CR1;
 8000c0c:	687b      	ldr	r3, [r7, #4]
 8000c0e:	899b      	ldrh	r3, [r3, #12]
 8000c10:	b29b      	uxth	r3, r3
 8000c12:	461a      	mov	r2, r3
 8000c14:	697b      	ldr	r3, [r7, #20]
 8000c16:	4013      	ands	r3, r2
 8000c18:	617b      	str	r3, [r7, #20]
 8000c1a:	e011      	b.n	8000c40 <USART_GetITStatus+0x72>
  }
  else if (usartreg == 0x02) /* The IT  is in CR2 register */
 8000c1c:	68bb      	ldr	r3, [r7, #8]
 8000c1e:	2b02      	cmp	r3, #2
 8000c20:	d107      	bne.n	8000c32 <USART_GetITStatus+0x64>
  {
    itmask &= USARTx->CR2;
 8000c22:	687b      	ldr	r3, [r7, #4]
 8000c24:	8a1b      	ldrh	r3, [r3, #16]
 8000c26:	b29b      	uxth	r3, r3
 8000c28:	461a      	mov	r2, r3
 8000c2a:	697b      	ldr	r3, [r7, #20]
 8000c2c:	4013      	ands	r3, r2
 8000c2e:	617b      	str	r3, [r7, #20]
 8000c30:	e006      	b.n	8000c40 <USART_GetITStatus+0x72>
  }
  else /* The IT  is in CR3 register */
  {
    itmask &= USARTx->CR3;
 8000c32:	687b      	ldr	r3, [r7, #4]
 8000c34:	8a9b      	ldrh	r3, [r3, #20]
 8000c36:	b29b      	uxth	r3, r3
 8000c38:	461a      	mov	r2, r3
 8000c3a:	697b      	ldr	r3, [r7, #20]
 8000c3c:	4013      	ands	r3, r2
 8000c3e:	617b      	str	r3, [r7, #20]
  }
  
  bitpos = USART_IT >> 0x08;
 8000c40:	887b      	ldrh	r3, [r7, #2]
 8000c42:	0a1b      	lsrs	r3, r3, #8
 8000c44:	b29b      	uxth	r3, r3
 8000c46:	60fb      	str	r3, [r7, #12]
  bitpos = (uint32_t)0x01 << bitpos;
 8000c48:	2201      	movs	r2, #1
 8000c4a:	68fb      	ldr	r3, [r7, #12]
 8000c4c:	fa02 f303 	lsl.w	r3, r2, r3
 8000c50:	60fb      	str	r3, [r7, #12]
  bitpos &= USARTx->SR;
 8000c52:	687b      	ldr	r3, [r7, #4]
 8000c54:	881b      	ldrh	r3, [r3, #0]
 8000c56:	b29b      	uxth	r3, r3
 8000c58:	461a      	mov	r2, r3
 8000c5a:	68fb      	ldr	r3, [r7, #12]
 8000c5c:	4013      	ands	r3, r2
 8000c5e:	60fb      	str	r3, [r7, #12]
  if ((itmask != (uint16_t)RESET)&&(bitpos != (uint16_t)RESET))
 8000c60:	697b      	ldr	r3, [r7, #20]
 8000c62:	2b00      	cmp	r3, #0
 8000c64:	d005      	beq.n	8000c72 <USART_GetITStatus+0xa4>
 8000c66:	68fb      	ldr	r3, [r7, #12]
 8000c68:	2b00      	cmp	r3, #0
 8000c6a:	d002      	beq.n	8000c72 <USART_GetITStatus+0xa4>
  {
    bitstatus = SET;
 8000c6c:	2301      	movs	r3, #1
 8000c6e:	74fb      	strb	r3, [r7, #19]
 8000c70:	e001      	b.n	8000c76 <USART_GetITStatus+0xa8>
  }
  else
  {
    bitstatus = RESET;
 8000c72:	2300      	movs	r3, #0
 8000c74:	74fb      	strb	r3, [r7, #19]
  }
  
  return bitstatus;  
 8000c76:	7cfb      	ldrb	r3, [r7, #19]
}
 8000c78:	4618      	mov	r0, r3
 8000c7a:	371c      	adds	r7, #28
 8000c7c:	46bd      	mov	sp, r7
 8000c7e:	bc80      	pop	{r7}
 8000c80:	4770      	bx	lr
	...

08000c84 <GetAvailableTableID>:
/**/
static uint8_t CoreRevDataBuf[USART_RX_BUF_LEN];
static uint8_t LeftDoorRevDataBuf[USART_RX_BUF_LEN];

static uint8_t GetAvailableTableID(void)
{
 8000c84:	b480      	push	{r7}
 8000c86:	b083      	sub	sp, #12
 8000c88:	af00      	add	r7, sp, #0
  uint8_t reCode = 0xFF;
 8000c8a:	23ff      	movs	r3, #255	; 0xff
 8000c8c:	71bb      	strb	r3, [r7, #6]
  uint8_t i = 0;
 8000c8e:	2300      	movs	r3, #0
 8000c90:	71fb      	strb	r3, [r7, #7]

  for(i = 0; i < 16; i++)
 8000c92:	2300      	movs	r3, #0
 8000c94:	71fb      	strb	r3, [r7, #7]
 8000c96:	e009      	b.n	8000cac <GetAvailableTableID+0x28>
  {
    if(0 == Table.tab[i])
 8000c98:	79fb      	ldrb	r3, [r7, #7]
 8000c9a:	4a09      	ldr	r2, [pc, #36]	; (8000cc0 <GetAvailableTableID+0x3c>)
 8000c9c:	5cd3      	ldrb	r3, [r2, r3]
 8000c9e:	2b00      	cmp	r3, #0
 8000ca0:	d101      	bne.n	8000ca6 <GetAvailableTableID+0x22>
    {
      return i;
 8000ca2:	79fb      	ldrb	r3, [r7, #7]
 8000ca4:	e006      	b.n	8000cb4 <GetAvailableTableID+0x30>
  for(i = 0; i < 16; i++)
 8000ca6:	79fb      	ldrb	r3, [r7, #7]
 8000ca8:	3301      	adds	r3, #1
 8000caa:	71fb      	strb	r3, [r7, #7]
 8000cac:	79fb      	ldrb	r3, [r7, #7]
 8000cae:	2b0f      	cmp	r3, #15
 8000cb0:	d9f2      	bls.n	8000c98 <GetAvailableTableID+0x14>
    }
  }
  return reCode;
 8000cb2:	79bb      	ldrb	r3, [r7, #6]
}
 8000cb4:	4618      	mov	r0, r3
 8000cb6:	370c      	adds	r7, #12
 8000cb8:	46bd      	mov	sp, r7
 8000cba:	bc80      	pop	{r7}
 8000cbc:	4770      	bx	lr
 8000cbe:	bf00      	nop
 8000cc0:	20000030 	.word	0x20000030

08000cc4 <getXORCode>:
    return reCode;
}


static uint8_t getXORCode(uint8_t* pData,uint16_t len)
{
 8000cc4:	b480      	push	{r7}
 8000cc6:	b085      	sub	sp, #20
 8000cc8:	af00      	add	r7, sp, #0
 8000cca:	6078      	str	r0, [r7, #4]
 8000ccc:	460b      	mov	r3, r1
 8000cce:	807b      	strh	r3, [r7, #2]
  uint8_t ret;
  uint16_t i;
  ret = pData[0];
 8000cd0:	687b      	ldr	r3, [r7, #4]
 8000cd2:	781b      	ldrb	r3, [r3, #0]
 8000cd4:	73fb      	strb	r3, [r7, #15]
  for(i = 1; i < len; i++)
 8000cd6:	2301      	movs	r3, #1
 8000cd8:	81bb      	strh	r3, [r7, #12]
 8000cda:	e009      	b.n	8000cf0 <getXORCode+0x2c>
  {
    ret ^= pData[i];
 8000cdc:	89bb      	ldrh	r3, [r7, #12]
 8000cde:	687a      	ldr	r2, [r7, #4]
 8000ce0:	4413      	add	r3, r2
 8000ce2:	781a      	ldrb	r2, [r3, #0]
 8000ce4:	7bfb      	ldrb	r3, [r7, #15]
 8000ce6:	4053      	eors	r3, r2
 8000ce8:	73fb      	strb	r3, [r7, #15]
  for(i = 1; i < len; i++)
 8000cea:	89bb      	ldrh	r3, [r7, #12]
 8000cec:	3301      	adds	r3, #1
 8000cee:	81bb      	strh	r3, [r7, #12]
 8000cf0:	89ba      	ldrh	r2, [r7, #12]
 8000cf2:	887b      	ldrh	r3, [r7, #2]
 8000cf4:	429a      	cmp	r2, r3
 8000cf6:	d3f1      	bcc.n	8000cdc <getXORCode+0x18>
  }
  return ret;
 8000cf8:	7bfb      	ldrb	r3, [r7, #15]
}
 8000cfa:	4618      	mov	r0, r3
 8000cfc:	3714      	adds	r7, #20
 8000cfe:	46bd      	mov	sp, r7
 8000d00:	bc80      	pop	{r7}
 8000d02:	4770      	bx	lr

08000d04 <DS_HandingUartData>:

static DS_StatusTypeDef DS_HandingUartData(pRevDataStruct pRevData,pAckedStruct pAckedData,pUSARTRECIVETYPE pUsartType ,uint8_t* pRevDataBuf)
{
 8000d04:	b580      	push	{r7, lr}
 8000d06:	b086      	sub	sp, #24
 8000d08:	af00      	add	r7, sp, #0
 8000d0a:	60f8      	str	r0, [r7, #12]
 8000d0c:	60b9      	str	r1, [r7, #8]
 8000d0e:	607a      	str	r2, [r7, #4]
 8000d10:	603b      	str	r3, [r7, #0]
	DS_StatusTypeDef state = DS_OK;
 8000d12:	2300      	movs	r3, #0
 8000d14:	757b      	strb	r3, [r7, #21]
	uint8_t xorTemp;
	uint16_t i;

	/*  */
	if(!(pUsartType->RX_Flag))
 8000d16:	687b      	ldr	r3, [r7, #4]
 8000d18:	781b      	ldrb	r3, [r3, #0]
 8000d1a:	f003 0301 	and.w	r3, r3, #1
 8000d1e:	b2db      	uxtb	r3, r3
 8000d20:	2b00      	cmp	r3, #0
 8000d22:	d101      	bne.n	8000d28 <DS_HandingUartData+0x24>
	{
		return state;
 8000d24:	7d7b      	ldrb	r3, [r7, #21]
 8000d26:	e176      	b.n	8001016 <DS_HandingUartData+0x312>
	}
	pUsartType->RX_Flag = 0;
 8000d28:	687a      	ldr	r2, [r7, #4]
 8000d2a:	7813      	ldrb	r3, [r2, #0]
 8000d2c:	f36f 0300 	bfc	r3, #0, #1
 8000d30:	7013      	strb	r3, [r2, #0]
	    {
	      return state;
	    }
	}
	/* Handling Request Cmd Data */
	if(pRevData->RevOKFlag)
 8000d32:	68fb      	ldr	r3, [r7, #12]
 8000d34:	7a5b      	ldrb	r3, [r3, #9]
 8000d36:	2b00      	cmp	r3, #0
 8000d38:	d001      	beq.n	8000d3e <DS_HandingUartData+0x3a>
	{
		return state;
 8000d3a:	7d7b      	ldrb	r3, [r7, #21]
 8000d3c:	e16b      	b.n	8001016 <DS_HandingUartData+0x312>
	}

	if((pRevData->NumberOfBytesReceived) < (pRevData->DataLength) && 0 != (pRevData->NumberOfBytesReceived))
 8000d3e:	68fb      	ldr	r3, [r7, #12]
 8000d40:	7a1b      	ldrb	r3, [r3, #8]
 8000d42:	b29a      	uxth	r2, r3
 8000d44:	68fb      	ldr	r3, [r7, #12]
 8000d46:	889b      	ldrh	r3, [r3, #4]
 8000d48:	429a      	cmp	r2, r3
 8000d4a:	d27b      	bcs.n	8000e44 <DS_HandingUartData+0x140>
 8000d4c:	68fb      	ldr	r3, [r7, #12]
 8000d4e:	7a1b      	ldrb	r3, [r3, #8]
 8000d50:	2b00      	cmp	r3, #0
 8000d52:	d077      	beq.n	8000e44 <DS_HandingUartData+0x140>
	{
	  for(i = 0; i < pUsartType->RX_Size; i++)
 8000d54:	2300      	movs	r3, #0
 8000d56:	82fb      	strh	r3, [r7, #22]
 8000d58:	e06d      	b.n	8000e36 <DS_HandingUartData+0x132>
	  {
	    pRevDataBuf[5 + pRevData->NumberOfBytesReceived] = *(pUsartType->RX_pData + i);
 8000d5a:	68fb      	ldr	r3, [r7, #12]
 8000d5c:	7a1b      	ldrb	r3, [r3, #8]
 8000d5e:	3305      	adds	r3, #5
 8000d60:	461a      	mov	r2, r3
 8000d62:	683b      	ldr	r3, [r7, #0]
 8000d64:	4413      	add	r3, r2
 8000d66:	687a      	ldr	r2, [r7, #4]
 8000d68:	1d11      	adds	r1, r2, #4
 8000d6a:	8afa      	ldrh	r2, [r7, #22]
 8000d6c:	440a      	add	r2, r1
 8000d6e:	7812      	ldrb	r2, [r2, #0]
 8000d70:	701a      	strb	r2, [r3, #0]
	    pRevData->NumberOfBytesReceived ++;
 8000d72:	68fb      	ldr	r3, [r7, #12]
 8000d74:	7a1b      	ldrb	r3, [r3, #8]
 8000d76:	3301      	adds	r3, #1
 8000d78:	b2da      	uxtb	r2, r3
 8000d7a:	68fb      	ldr	r3, [r7, #12]
 8000d7c:	721a      	strb	r2, [r3, #8]
	    if(pRevData->DataLength == pRevData->NumberOfBytesReceived)
 8000d7e:	68fb      	ldr	r3, [r7, #12]
 8000d80:	889a      	ldrh	r2, [r3, #4]
 8000d82:	68fb      	ldr	r3, [r7, #12]
 8000d84:	7a1b      	ldrb	r3, [r3, #8]
 8000d86:	b29b      	uxth	r3, r3
 8000d88:	429a      	cmp	r2, r3
 8000d8a:	d151      	bne.n	8000e30 <DS_HandingUartData+0x12c>
	    {
	      pRevData->XOR8BIT = *(pUsartType->RX_pData + i + 1);
 8000d8c:	687b      	ldr	r3, [r7, #4]
 8000d8e:	1d1a      	adds	r2, r3, #4
 8000d90:	8afb      	ldrh	r3, [r7, #22]
 8000d92:	3301      	adds	r3, #1
 8000d94:	4413      	add	r3, r2
 8000d96:	781a      	ldrb	r2, [r3, #0]
 8000d98:	68fb      	ldr	r3, [r7, #12]
 8000d9a:	709a      	strb	r2, [r3, #2]
	      if(0x5D != *(pUsartType->RX_pData + i + 2))
 8000d9c:	687b      	ldr	r3, [r7, #4]
 8000d9e:	1d1a      	adds	r2, r3, #4
 8000da0:	8afb      	ldrh	r3, [r7, #22]
 8000da2:	3302      	adds	r3, #2
 8000da4:	4413      	add	r3, r2
 8000da6:	781b      	ldrb	r3, [r3, #0]
 8000da8:	2b5d      	cmp	r3, #93	; 0x5d
 8000daa:	d00a      	beq.n	8000dc2 <DS_HandingUartData+0xbe>
	      {
	        pRevData->NumberOfBytesReceived = 0;
 8000dac:	68fb      	ldr	r3, [r7, #12]
 8000dae:	2200      	movs	r2, #0
 8000db0:	721a      	strb	r2, [r3, #8]
	        pRevData->DataLength = 0;
 8000db2:	68fb      	ldr	r3, [r7, #12]
 8000db4:	2200      	movs	r2, #0
 8000db6:	809a      	strh	r2, [r3, #4]
	        pRevData->TotalLength = 0;
 8000db8:	68fb      	ldr	r3, [r7, #12]
 8000dba:	2200      	movs	r2, #0
 8000dbc:	80da      	strh	r2, [r3, #6]
	        return state;
 8000dbe:	7d7b      	ldrb	r3, [r7, #21]
 8000dc0:	e129      	b.n	8001016 <DS_HandingUartData+0x312>
	      }
	      pRevData->TotalLength = pRevData->DataLength + REQUESTFIXEDCOMMANDLEN;
 8000dc2:	68fb      	ldr	r3, [r7, #12]
 8000dc4:	889b      	ldrh	r3, [r3, #4]
 8000dc6:	3307      	adds	r3, #7
 8000dc8:	b29a      	uxth	r2, r3
 8000dca:	68fb      	ldr	r3, [r7, #12]
 8000dcc:	80da      	strh	r2, [r3, #6]
	      /* here to check XOR code */
	      xorTemp = getXORCode(pRevDataBuf + 1, pRevData->TotalLength - 3);
 8000dce:	683b      	ldr	r3, [r7, #0]
 8000dd0:	1c5a      	adds	r2, r3, #1
 8000dd2:	68fb      	ldr	r3, [r7, #12]
 8000dd4:	88db      	ldrh	r3, [r3, #6]
 8000dd6:	3b03      	subs	r3, #3
 8000dd8:	b29b      	uxth	r3, r3
 8000dda:	4619      	mov	r1, r3
 8000ddc:	4610      	mov	r0, r2
 8000dde:	f7ff ff71 	bl	8000cc4 <getXORCode>
 8000de2:	4603      	mov	r3, r0
 8000de4:	753b      	strb	r3, [r7, #20]
	      if(pRevData->XOR8BIT != xorTemp)
 8000de6:	68fb      	ldr	r3, [r7, #12]
 8000de8:	789b      	ldrb	r3, [r3, #2]
 8000dea:	7d3a      	ldrb	r2, [r7, #20]
 8000dec:	429a      	cmp	r2, r3
 8000dee:	d00a      	beq.n	8000e06 <DS_HandingUartData+0x102>
	      {
	        pRevData->NumberOfBytesReceived = 0;
 8000df0:	68fb      	ldr	r3, [r7, #12]
 8000df2:	2200      	movs	r2, #0
 8000df4:	721a      	strb	r2, [r3, #8]
	        pRevData->DataLength = 0;
 8000df6:	68fb      	ldr	r3, [r7, #12]
 8000df8:	2200      	movs	r2, #0
 8000dfa:	809a      	strh	r2, [r3, #4]
	        pRevData->TotalLength = 0;
 8000dfc:	68fb      	ldr	r3, [r7, #12]
 8000dfe:	2200      	movs	r2, #0
 8000e00:	80da      	strh	r2, [r3, #6]
	        return state;
 8000e02:	7d7b      	ldrb	r3, [r7, #21]
 8000e04:	e107      	b.n	8001016 <DS_HandingUartData+0x312>
	      }
	      pRevDataBuf[5 + pRevData->NumberOfBytesReceived] = xorTemp;
 8000e06:	68fb      	ldr	r3, [r7, #12]
 8000e08:	7a1b      	ldrb	r3, [r3, #8]
 8000e0a:	3305      	adds	r3, #5
 8000e0c:	461a      	mov	r2, r3
 8000e0e:	683b      	ldr	r3, [r7, #0]
 8000e10:	4413      	add	r3, r2
 8000e12:	7d3a      	ldrb	r2, [r7, #20]
 8000e14:	701a      	strb	r2, [r3, #0]
	      pRevDataBuf[5 + pRevData->NumberOfBytesReceived + 1] = 0x5D;
 8000e16:	68fb      	ldr	r3, [r7, #12]
 8000e18:	7a1b      	ldrb	r3, [r3, #8]
 8000e1a:	3306      	adds	r3, #6
 8000e1c:	683a      	ldr	r2, [r7, #0]
 8000e1e:	4413      	add	r3, r2
 8000e20:	225d      	movs	r2, #93	; 0x5d
 8000e22:	701a      	strb	r2, [r3, #0]
	      pRevData->pRevDataBuf = pRevDataBuf;
 8000e24:	68fb      	ldr	r3, [r7, #12]
 8000e26:	683a      	ldr	r2, [r7, #0]
 8000e28:	60da      	str	r2, [r3, #12]
	      pRevData->RevOKFlag = 1;
 8000e2a:	68fb      	ldr	r3, [r7, #12]
 8000e2c:	2201      	movs	r2, #1
 8000e2e:	725a      	strb	r2, [r3, #9]
	  for(i = 0; i < pUsartType->RX_Size; i++)
 8000e30:	8afb      	ldrh	r3, [r7, #22]
 8000e32:	3301      	adds	r3, #1
 8000e34:	82fb      	strh	r3, [r7, #22]
 8000e36:	687b      	ldr	r3, [r7, #4]
 8000e38:	885b      	ldrh	r3, [r3, #2]
 8000e3a:	8afa      	ldrh	r2, [r7, #22]
 8000e3c:	429a      	cmp	r2, r3
 8000e3e:	d38c      	bcc.n	8000d5a <DS_HandingUartData+0x56>
	    }
	  }
	  return state;
 8000e40:	7d7b      	ldrb	r3, [r7, #21]
 8000e42:	e0e8      	b.n	8001016 <DS_HandingUartData+0x312>
	}

	if(0 == pRevData->TotalLength)
 8000e44:	68fb      	ldr	r3, [r7, #12]
 8000e46:	88db      	ldrh	r3, [r3, #6]
 8000e48:	2b00      	cmp	r3, #0
 8000e4a:	f040 80e3 	bne.w	8001014 <DS_HandingUartData+0x310>
	{
	  if(0x5B != *(pUsartType->RX_pData))
 8000e4e:	687b      	ldr	r3, [r7, #4]
 8000e50:	791b      	ldrb	r3, [r3, #4]
 8000e52:	2b5b      	cmp	r3, #91	; 0x5b
 8000e54:	d001      	beq.n	8000e5a <DS_HandingUartData+0x156>
	  {
		  return state;
 8000e56:	7d7b      	ldrb	r3, [r7, #21]
 8000e58:	e0dd      	b.n	8001016 <DS_HandingUartData+0x312>
	  }
	  pRevData->CmdType      =*(pUsartType->RX_pData + 1);
 8000e5a:	687b      	ldr	r3, [r7, #4]
 8000e5c:	795a      	ldrb	r2, [r3, #5]
 8000e5e:	68fb      	ldr	r3, [r7, #12]
 8000e60:	701a      	strb	r2, [r3, #0]
	  pRevData->CmdParam     =*(pUsartType->RX_pData + 2);
 8000e62:	687b      	ldr	r3, [r7, #4]
 8000e64:	799a      	ldrb	r2, [r3, #6]
 8000e66:	68fb      	ldr	r3, [r7, #12]
 8000e68:	705a      	strb	r2, [r3, #1]
	  pRevData->DataLength   =(*(pUsartType->RX_pData + 3)<< 8) + *(pUsartType->RX_pData + 4);
 8000e6a:	687b      	ldr	r3, [r7, #4]
 8000e6c:	79db      	ldrb	r3, [r3, #7]
 8000e6e:	b29b      	uxth	r3, r3
 8000e70:	021b      	lsls	r3, r3, #8
 8000e72:	b29a      	uxth	r2, r3
 8000e74:	687b      	ldr	r3, [r7, #4]
 8000e76:	7a1b      	ldrb	r3, [r3, #8]
 8000e78:	b29b      	uxth	r3, r3
 8000e7a:	4413      	add	r3, r2
 8000e7c:	b29a      	uxth	r2, r3
 8000e7e:	68fb      	ldr	r3, [r7, #12]
 8000e80:	809a      	strh	r2, [r3, #4]
	  if(0 == pRevData->DataLength)
 8000e82:	68fb      	ldr	r3, [r7, #12]
 8000e84:	889b      	ldrh	r3, [r3, #4]
 8000e86:	2b00      	cmp	r3, #0
 8000e88:	d143      	bne.n	8000f12 <DS_HandingUartData+0x20e>
	  {
	    if(0x5D != *(pUsartType->RX_pData + REQUESTFIXEDCOMMANDLEN - 1))
 8000e8a:	687b      	ldr	r3, [r7, #4]
 8000e8c:	7a9b      	ldrb	r3, [r3, #10]
 8000e8e:	2b5d      	cmp	r3, #93	; 0x5d
 8000e90:	d001      	beq.n	8000e96 <DS_HandingUartData+0x192>
	    {
	      return state;
 8000e92:	7d7b      	ldrb	r3, [r7, #21]
 8000e94:	e0bf      	b.n	8001016 <DS_HandingUartData+0x312>
	    }
	    pRevData->XOR8BIT         =*(pUsartType->RX_pData + 5);
 8000e96:	687b      	ldr	r3, [r7, #4]
 8000e98:	7a5a      	ldrb	r2, [r3, #9]
 8000e9a:	68fb      	ldr	r3, [r7, #12]
 8000e9c:	709a      	strb	r2, [r3, #2]
	    pRevData->TotalLength     = REQUESTFIXEDCOMMANDLEN;
 8000e9e:	68fb      	ldr	r3, [r7, #12]
 8000ea0:	2207      	movs	r2, #7
 8000ea2:	80da      	strh	r2, [r3, #6]
		pRevDataBuf[0]           = 0x5B;
 8000ea4:	683b      	ldr	r3, [r7, #0]
 8000ea6:	225b      	movs	r2, #91	; 0x5b
 8000ea8:	701a      	strb	r2, [r3, #0]
		pRevDataBuf[1]           = pRevData->CmdType;
 8000eaa:	683b      	ldr	r3, [r7, #0]
 8000eac:	3301      	adds	r3, #1
 8000eae:	68fa      	ldr	r2, [r7, #12]
 8000eb0:	7812      	ldrb	r2, [r2, #0]
 8000eb2:	701a      	strb	r2, [r3, #0]
		pRevDataBuf[2]           = pRevData->CmdParam;
 8000eb4:	683b      	ldr	r3, [r7, #0]
 8000eb6:	3302      	adds	r3, #2
 8000eb8:	68fa      	ldr	r2, [r7, #12]
 8000eba:	7852      	ldrb	r2, [r2, #1]
 8000ebc:	701a      	strb	r2, [r3, #0]
		pRevDataBuf[3]           = *(pUsartType->RX_pData + 3);
 8000ebe:	683b      	ldr	r3, [r7, #0]
 8000ec0:	3303      	adds	r3, #3
 8000ec2:	687a      	ldr	r2, [r7, #4]
 8000ec4:	79d2      	ldrb	r2, [r2, #7]
 8000ec6:	701a      	strb	r2, [r3, #0]
		pRevDataBuf[4]           = *(pUsartType->RX_pData + 4);
 8000ec8:	683b      	ldr	r3, [r7, #0]
 8000eca:	3304      	adds	r3, #4
 8000ecc:	687a      	ldr	r2, [r7, #4]
 8000ece:	7a12      	ldrb	r2, [r2, #8]
 8000ed0:	701a      	strb	r2, [r3, #0]
		xorTemp = getXORCode(pRevDataBuf + 1, REQUESTFIXEDCOMMANDLEN - 3);
 8000ed2:	683b      	ldr	r3, [r7, #0]
 8000ed4:	3301      	adds	r3, #1
 8000ed6:	2104      	movs	r1, #4
 8000ed8:	4618      	mov	r0, r3
 8000eda:	f7ff fef3 	bl	8000cc4 <getXORCode>
 8000ede:	4603      	mov	r3, r0
 8000ee0:	753b      	strb	r3, [r7, #20]
		if((pRevData->XOR8BIT) != xorTemp)
 8000ee2:	68fb      	ldr	r3, [r7, #12]
 8000ee4:	789b      	ldrb	r3, [r3, #2]
 8000ee6:	7d3a      	ldrb	r2, [r7, #20]
 8000ee8:	429a      	cmp	r2, r3
 8000eea:	d004      	beq.n	8000ef6 <DS_HandingUartData+0x1f2>
		{
		  pRevData->TotalLength = 0;
 8000eec:	68fb      	ldr	r3, [r7, #12]
 8000eee:	2200      	movs	r2, #0
 8000ef0:	80da      	strh	r2, [r3, #6]
		  return state;
 8000ef2:	7d7b      	ldrb	r3, [r7, #21]
 8000ef4:	e08f      	b.n	8001016 <DS_HandingUartData+0x312>
		}
	    pRevDataBuf[5]           = pRevData->XOR8BIT;
 8000ef6:	683b      	ldr	r3, [r7, #0]
 8000ef8:	3305      	adds	r3, #5
 8000efa:	68fa      	ldr	r2, [r7, #12]
 8000efc:	7892      	ldrb	r2, [r2, #2]
 8000efe:	701a      	strb	r2, [r3, #0]
	    pRevDataBuf[6]           = 0x5D;
 8000f00:	683b      	ldr	r3, [r7, #0]
 8000f02:	3306      	adds	r3, #6
 8000f04:	225d      	movs	r2, #93	; 0x5d
 8000f06:	701a      	strb	r2, [r3, #0]
	    pRevData->RevOKFlag = 1;
 8000f08:	68fb      	ldr	r3, [r7, #12]
 8000f0a:	2201      	movs	r2, #1
 8000f0c:	725a      	strb	r2, [r3, #9]
	    return state;
 8000f0e:	7d7b      	ldrb	r3, [r7, #21]
 8000f10:	e081      	b.n	8001016 <DS_HandingUartData+0x312>
	  }
	  for(i = 5; i < pUsartType->RX_Size; i++)
 8000f12:	2305      	movs	r3, #5
 8000f14:	82fb      	strh	r3, [r7, #22]
 8000f16:	e078      	b.n	800100a <DS_HandingUartData+0x306>
	  {
	    pRevDataBuf[i] = *(pUsartType->RX_pData + i);
 8000f18:	8afb      	ldrh	r3, [r7, #22]
 8000f1a:	683a      	ldr	r2, [r7, #0]
 8000f1c:	4413      	add	r3, r2
 8000f1e:	687a      	ldr	r2, [r7, #4]
 8000f20:	1d11      	adds	r1, r2, #4
 8000f22:	8afa      	ldrh	r2, [r7, #22]
 8000f24:	440a      	add	r2, r1
 8000f26:	7812      	ldrb	r2, [r2, #0]
 8000f28:	701a      	strb	r2, [r3, #0]
	    pRevData->NumberOfBytesReceived ++;
 8000f2a:	68fb      	ldr	r3, [r7, #12]
 8000f2c:	7a1b      	ldrb	r3, [r3, #8]
 8000f2e:	3301      	adds	r3, #1
 8000f30:	b2da      	uxtb	r2, r3
 8000f32:	68fb      	ldr	r3, [r7, #12]
 8000f34:	721a      	strb	r2, [r3, #8]
	    if(pRevData->DataLength == pRevData->NumberOfBytesReceived)
 8000f36:	68fb      	ldr	r3, [r7, #12]
 8000f38:	889a      	ldrh	r2, [r3, #4]
 8000f3a:	68fb      	ldr	r3, [r7, #12]
 8000f3c:	7a1b      	ldrb	r3, [r3, #8]
 8000f3e:	b29b      	uxth	r3, r3
 8000f40:	429a      	cmp	r2, r3
 8000f42:	d15f      	bne.n	8001004 <DS_HandingUartData+0x300>
	    {
	      if(0x5D != *(pUsartType->RX_pData + REQUESTFIXEDCOMMANDLEN + pRevData->NumberOfBytesReceived - 1))
 8000f44:	687b      	ldr	r3, [r7, #4]
 8000f46:	1d1a      	adds	r2, r3, #4
 8000f48:	68fb      	ldr	r3, [r7, #12]
 8000f4a:	7a1b      	ldrb	r3, [r3, #8]
 8000f4c:	3306      	adds	r3, #6
 8000f4e:	4413      	add	r3, r2
 8000f50:	781b      	ldrb	r3, [r3, #0]
 8000f52:	2b5d      	cmp	r3, #93	; 0x5d
 8000f54:	d008      	beq.n	8000f68 <DS_HandingUartData+0x264>
	      {
	        pRevData->DataLength = 0;
 8000f56:	68fb      	ldr	r3, [r7, #12]
 8000f58:	2200      	movs	r2, #0
 8000f5a:	809a      	strh	r2, [r3, #4]
	        pRevData->NumberOfBytesReceived = 0;
 8000f5c:	68fb      	ldr	r3, [r7, #12]
 8000f5e:	2200      	movs	r2, #0
 8000f60:	721a      	strb	r2, [r3, #8]
	        pRevData->TotalLength = 0;
 8000f62:	68fb      	ldr	r3, [r7, #12]
 8000f64:	2200      	movs	r2, #0
 8000f66:	80da      	strh	r2, [r3, #6]
	      }
	      pRevData->XOR8BIT = *(pUsartType->RX_pData + i + 1 );
 8000f68:	687b      	ldr	r3, [r7, #4]
 8000f6a:	1d1a      	adds	r2, r3, #4
 8000f6c:	8afb      	ldrh	r3, [r7, #22]
 8000f6e:	3301      	adds	r3, #1
 8000f70:	4413      	add	r3, r2
 8000f72:	781a      	ldrb	r2, [r3, #0]
 8000f74:	68fb      	ldr	r3, [r7, #12]
 8000f76:	709a      	strb	r2, [r3, #2]
	      pRevData->TotalLength = pRevData->DataLength + REQUESTFIXEDCOMMANDLEN;
 8000f78:	68fb      	ldr	r3, [r7, #12]
 8000f7a:	889b      	ldrh	r3, [r3, #4]
 8000f7c:	3307      	adds	r3, #7
 8000f7e:	b29a      	uxth	r2, r3
 8000f80:	68fb      	ldr	r3, [r7, #12]
 8000f82:	80da      	strh	r2, [r3, #6]
	      /* here to XOR check */
	      xorTemp = getXORCode(pUsartType->RX_pData + 1, pRevData->TotalLength - 3);
 8000f84:	687b      	ldr	r3, [r7, #4]
 8000f86:	3304      	adds	r3, #4
 8000f88:	1c5a      	adds	r2, r3, #1
 8000f8a:	68fb      	ldr	r3, [r7, #12]
 8000f8c:	88db      	ldrh	r3, [r3, #6]
 8000f8e:	3b03      	subs	r3, #3
 8000f90:	b29b      	uxth	r3, r3
 8000f92:	4619      	mov	r1, r3
 8000f94:	4610      	mov	r0, r2
 8000f96:	f7ff fe95 	bl	8000cc4 <getXORCode>
 8000f9a:	4603      	mov	r3, r0
 8000f9c:	753b      	strb	r3, [r7, #20]
	      /*  */
	      if(pRevData->XOR8BIT != xorTemp)
 8000f9e:	68fb      	ldr	r3, [r7, #12]
 8000fa0:	789b      	ldrb	r3, [r3, #2]
 8000fa2:	7d3a      	ldrb	r2, [r7, #20]
 8000fa4:	429a      	cmp	r2, r3
 8000fa6:	d004      	beq.n	8000fb2 <DS_HandingUartData+0x2ae>
	      {
	        pRevData->TotalLength = 0;
 8000fa8:	68fb      	ldr	r3, [r7, #12]
 8000faa:	2200      	movs	r2, #0
 8000fac:	80da      	strh	r2, [r3, #6]
	        return state;
 8000fae:	7d7b      	ldrb	r3, [r7, #21]
 8000fb0:	e031      	b.n	8001016 <DS_HandingUartData+0x312>
	      }
	      pRevDataBuf[0]           = 0x5B;
 8000fb2:	683b      	ldr	r3, [r7, #0]
 8000fb4:	225b      	movs	r2, #91	; 0x5b
 8000fb6:	701a      	strb	r2, [r3, #0]
	      pRevDataBuf[1]           = pRevData->CmdType;
 8000fb8:	683b      	ldr	r3, [r7, #0]
 8000fba:	3301      	adds	r3, #1
 8000fbc:	68fa      	ldr	r2, [r7, #12]
 8000fbe:	7812      	ldrb	r2, [r2, #0]
 8000fc0:	701a      	strb	r2, [r3, #0]
	      pRevDataBuf[2]           = pRevData->CmdParam;
 8000fc2:	683b      	ldr	r3, [r7, #0]
 8000fc4:	3302      	adds	r3, #2
 8000fc6:	68fa      	ldr	r2, [r7, #12]
 8000fc8:	7852      	ldrb	r2, [r2, #1]
 8000fca:	701a      	strb	r2, [r3, #0]
	      pRevDataBuf[3]           = *(pUsartType->RX_pData + 3);
 8000fcc:	683b      	ldr	r3, [r7, #0]
 8000fce:	3303      	adds	r3, #3
 8000fd0:	687a      	ldr	r2, [r7, #4]
 8000fd2:	79d2      	ldrb	r2, [r2, #7]
 8000fd4:	701a      	strb	r2, [r3, #0]
	      pRevDataBuf[4]           = *(pUsartType->RX_pData + 4);
 8000fd6:	683b      	ldr	r3, [r7, #0]
 8000fd8:	3304      	adds	r3, #4
 8000fda:	687a      	ldr	r2, [r7, #4]
 8000fdc:	7a12      	ldrb	r2, [r2, #8]
 8000fde:	701a      	strb	r2, [r3, #0]
	      pRevDataBuf[i + 1]           = pRevData->XOR8BIT;
 8000fe0:	8afb      	ldrh	r3, [r7, #22]
 8000fe2:	3301      	adds	r3, #1
 8000fe4:	683a      	ldr	r2, [r7, #0]
 8000fe6:	4413      	add	r3, r2
 8000fe8:	68fa      	ldr	r2, [r7, #12]
 8000fea:	7892      	ldrb	r2, [r2, #2]
 8000fec:	701a      	strb	r2, [r3, #0]
	      pRevDataBuf[i + 2]           = 0x5D;
 8000fee:	8afb      	ldrh	r3, [r7, #22]
 8000ff0:	3302      	adds	r3, #2
 8000ff2:	683a      	ldr	r2, [r7, #0]
 8000ff4:	4413      	add	r3, r2
 8000ff6:	225d      	movs	r2, #93	; 0x5d
 8000ff8:	701a      	strb	r2, [r3, #0]
	      pRevData->RevOKFlag = 1;
 8000ffa:	68fb      	ldr	r3, [r7, #12]
 8000ffc:	2201      	movs	r2, #1
 8000ffe:	725a      	strb	r2, [r3, #9]
	      return state;
 8001000:	7d7b      	ldrb	r3, [r7, #21]
 8001002:	e008      	b.n	8001016 <DS_HandingUartData+0x312>
	  for(i = 5; i < pUsartType->RX_Size; i++)
 8001004:	8afb      	ldrh	r3, [r7, #22]
 8001006:	3301      	adds	r3, #1
 8001008:	82fb      	strh	r3, [r7, #22]
 800100a:	687b      	ldr	r3, [r7, #4]
 800100c:	885b      	ldrh	r3, [r3, #2]
 800100e:	8afa      	ldrh	r2, [r7, #22]
 8001010:	429a      	cmp	r2, r3
 8001012:	d381      	bcc.n	8000f18 <DS_HandingUartData+0x214>
	    }
	  }
	}
	return state;
 8001014:	7d7b      	ldrb	r3, [r7, #21]
}
 8001016:	4618      	mov	r0, r3
 8001018:	3718      	adds	r7, #24
 800101a:	46bd      	mov	sp, r7
 800101c:	bd80      	pop	{r7, pc}
	...

08001020 <DS_HandingUartDataFromCoreBoard>:
*
*       Data            :2018/1/31
*       Author          :bertz
*******************************************************************************/
DS_StatusTypeDef DS_HandingUartDataFromCoreBoard()
{
 8001020:	b580      	push	{r7, lr}
 8001022:	b082      	sub	sp, #8
 8001024:	af00      	add	r7, sp, #0
	DS_StatusTypeDef state = DS_OK;
 8001026:	2300      	movs	r3, #0
 8001028:	71fb      	strb	r3, [r7, #7]
	state = DS_HandingUartData(&CoreBoardRevDataStruct, &CoreBoardAckedData, &CoreBoardUsartType, CoreRevDataBuf);
 800102a:	4b06      	ldr	r3, [pc, #24]	; (8001044 <DS_HandingUartDataFromCoreBoard+0x24>)
 800102c:	4a06      	ldr	r2, [pc, #24]	; (8001048 <DS_HandingUartDataFromCoreBoard+0x28>)
 800102e:	4907      	ldr	r1, [pc, #28]	; (800104c <DS_HandingUartDataFromCoreBoard+0x2c>)
 8001030:	4807      	ldr	r0, [pc, #28]	; (8001050 <DS_HandingUartDataFromCoreBoard+0x30>)
 8001032:	f7ff fe67 	bl	8000d04 <DS_HandingUartData>
 8001036:	4603      	mov	r3, r0
 8001038:	71fb      	strb	r3, [r7, #7]
	return state;
 800103a:	79fb      	ldrb	r3, [r7, #7]
}
 800103c:	4618      	mov	r0, r3
 800103e:	3708      	adds	r7, #8
 8001040:	46bd      	mov	sp, r7
 8001042:	bd80      	pop	{r7, pc}
 8001044:	20000044 	.word	0x20000044
 8001048:	20000508 	.word	0x20000508
 800104c:	200002b4 	.word	0x200002b4
 8001050:	200002cc 	.word	0x200002cc

08001054 <DS_HandingCoreBoardRequest>:

DS_StatusTypeDef DS_HandingCoreBoardRequest()
{
 8001054:	b580      	push	{r7, lr}
 8001056:	b082      	sub	sp, #8
 8001058:	af00      	add	r7, sp, #0
	  DS_StatusTypeDef state = DS_OK;
 800105a:	2300      	movs	r3, #0
 800105c:	71fb      	strb	r3, [r7, #7]
	  uint8_t tempTableID;

	  if(CoreBoardRevDataStruct.RevOKFlag)
 800105e:	4b1d      	ldr	r3, [pc, #116]	; (80010d4 <DS_HandingCoreBoardRequest+0x80>)
 8001060:	7a5b      	ldrb	r3, [r3, #9]
 8001062:	2b00      	cmp	r3, #0
 8001064:	d031      	beq.n	80010ca <DS_HandingCoreBoardRequest+0x76>
	  {
		  tempTableID = GetAvailableTableID();
 8001066:	f7ff fe0d 	bl	8000c84 <GetAvailableTableID>
 800106a:	4603      	mov	r3, r0
 800106c:	71bb      	strb	r3, [r7, #6]
		  if(0xFF == tempTableID)
 800106e:	79bb      	ldrb	r3, [r7, #6]
 8001070:	2bff      	cmp	r3, #255	; 0xff
 8001072:	d101      	bne.n	8001078 <DS_HandingCoreBoardRequest+0x24>
		  {
			  return state;
 8001074:	79fb      	ldrb	r3, [r7, #7]
 8001076:	e029      	b.n	80010cc <DS_HandingCoreBoardRequest+0x78>
		  }

		  switch((CoreBoardRevDataStruct.CmdType) & 0xF0)
 8001078:	4b16      	ldr	r3, [pc, #88]	; (80010d4 <DS_HandingCoreBoardRequest+0x80>)
 800107a:	781b      	ldrb	r3, [r3, #0]
 800107c:	f003 03f0 	and.w	r3, r3, #240	; 0xf0
 8001080:	2bd0      	cmp	r3, #208	; 0xd0
 8001082:	d00d      	beq.n	80010a0 <DS_HandingCoreBoardRequest+0x4c>
 8001084:	2bd0      	cmp	r3, #208	; 0xd0
 8001086:	dc04      	bgt.n	8001092 <DS_HandingCoreBoardRequest+0x3e>
 8001088:	2bb0      	cmp	r3, #176	; 0xb0
 800108a:	d00b      	beq.n	80010a4 <DS_HandingCoreBoardRequest+0x50>
 800108c:	2bc0      	cmp	r3, #192	; 0xc0
 800108e:	d00b      	beq.n	80010a8 <DS_HandingCoreBoardRequest+0x54>
 8001090:	e003      	b.n	800109a <DS_HandingCoreBoardRequest+0x46>
 8001092:	2be0      	cmp	r3, #224	; 0xe0
 8001094:	d00a      	beq.n	80010ac <DS_HandingCoreBoardRequest+0x58>
 8001096:	2bf0      	cmp	r3, #240	; 0xf0
 8001098:	d00a      	beq.n	80010b0 <DS_HandingCoreBoardRequest+0x5c>
		  	  case 0xB0:break;
		  	  case 0xC0:break;
		  	  case 0xD0:break;
		  	  case 0xE0:break;
		  	  case 0xF0:break;
		  	  default:state = DS_ERR;break;
 800109a:	2301      	movs	r3, #1
 800109c:	71fb      	strb	r3, [r7, #7]
 800109e:	e008      	b.n	80010b2 <DS_HandingCoreBoardRequest+0x5e>
		  	  case 0xD0:break;
 80010a0:	bf00      	nop
 80010a2:	e006      	b.n	80010b2 <DS_HandingCoreBoardRequest+0x5e>
		  	  case 0xB0:break;
 80010a4:	bf00      	nop
 80010a6:	e004      	b.n	80010b2 <DS_HandingCoreBoardRequest+0x5e>
		  	  case 0xC0:break;
 80010a8:	bf00      	nop
 80010aa:	e002      	b.n	80010b2 <DS_HandingCoreBoardRequest+0x5e>
		  	  case 0xE0:break;
 80010ac:	bf00      	nop
 80010ae:	e000      	b.n	80010b2 <DS_HandingCoreBoardRequest+0x5e>
		  	  case 0xF0:break;
 80010b0:	bf00      	nop
		  }

		  CoreBoardRevDataStruct.NumberOfBytesReceived = 0;
 80010b2:	4b08      	ldr	r3, [pc, #32]	; (80010d4 <DS_HandingCoreBoardRequest+0x80>)
 80010b4:	2200      	movs	r2, #0
 80010b6:	721a      	strb	r2, [r3, #8]
		  CoreBoardRevDataStruct.DataLength = 0;
 80010b8:	4b06      	ldr	r3, [pc, #24]	; (80010d4 <DS_HandingCoreBoardRequest+0x80>)
 80010ba:	2200      	movs	r2, #0
 80010bc:	809a      	strh	r2, [r3, #4]
		  CoreBoardRevDataStruct.TotalLength = 0;
 80010be:	4b05      	ldr	r3, [pc, #20]	; (80010d4 <DS_HandingCoreBoardRequest+0x80>)
 80010c0:	2200      	movs	r2, #0
 80010c2:	80da      	strh	r2, [r3, #6]
		  CoreBoardRevDataStruct.RevOKFlag = 0;
 80010c4:	4b03      	ldr	r3, [pc, #12]	; (80010d4 <DS_HandingCoreBoardRequest+0x80>)
 80010c6:	2200      	movs	r2, #0
 80010c8:	725a      	strb	r2, [r3, #9]

	  }
	  return state;
 80010ca:	79fb      	ldrb	r3, [r7, #7]
}
 80010cc:	4618      	mov	r0, r3
 80010ce:	3708      	adds	r7, #8
 80010d0:	46bd      	mov	sp, r7
 80010d2:	bd80      	pop	{r7, pc}
 80010d4:	200002cc 	.word	0x200002cc

080010d8 <main>:
**  Abstract: main program
**
**===========================================================================
*/
int main(void)
{
 80010d8:	b580      	push	{r7, lr}
 80010da:	b082      	sub	sp, #8
 80010dc:	af00      	add	r7, sp, #0
  int i = 0;
 80010de:	2300      	movs	r3, #0
 80010e0:	607b      	str	r3, [r7, #4]
  /* TODO - Add your application code here */

  /* Infinite loop */
  MX_USART1_Init();
 80010e2:	f000 f9b9 	bl	8001458 <MX_USART1_Init>
  MX_USART2_Init();
 80010e6:	f000 fa49 	bl	800157c <MX_USART2_Init>
  while (1)
  {
	  i++;
 80010ea:	687b      	ldr	r3, [r7, #4]
 80010ec:	3301      	adds	r3, #1
 80010ee:	607b      	str	r3, [r7, #4]
	  if(i > 4096)
 80010f0:	687b      	ldr	r3, [r7, #4]
 80010f2:	f5b3 5f80 	cmp.w	r3, #4096	; 0x1000
 80010f6:	dd01      	ble.n	80010fc <main+0x24>
	  {
		  i =0;
 80010f8:	2300      	movs	r3, #0
 80010fa:	607b      	str	r3, [r7, #4]
		  //USART_SendData(USART1,(uint16_t)'A');
	  }

	  DS_HandingUartDataFromCoreBoard();
 80010fc:	f7ff ff90 	bl	8001020 <DS_HandingUartDataFromCoreBoard>
	  DS_HandingCoreBoardRequest();
 8001100:	f7ff ffa8 	bl	8001054 <DS_HandingCoreBoardRequest>

	  if(1 == LeftBoardUsartType.RX_Flag)
 8001104:	4b11      	ldr	r3, [pc, #68]	; (800114c <main+0x74>)
 8001106:	781b      	ldrb	r3, [r3, #0]
 8001108:	f003 0301 	and.w	r3, r3, #1
 800110c:	b2db      	uxtb	r3, r3
 800110e:	2b00      	cmp	r3, #0
 8001110:	d0eb      	beq.n	80010ea <main+0x12>
	  {
		  LeftBoardUsartType.RX_Flag = 0;
 8001112:	4a0e      	ldr	r2, [pc, #56]	; (800114c <main+0x74>)
 8001114:	7813      	ldrb	r3, [r2, #0]
 8001116:	f36f 0300 	bfc	r3, #0, #1
 800111a:	7013      	strb	r3, [r2, #0]
		  for(i = 0; i < LeftBoardUsartType.RX_Size;i++)
 800111c:	2300      	movs	r3, #0
 800111e:	607b      	str	r3, [r7, #4]
 8001120:	e00c      	b.n	800113c <main+0x64>
		  {
			  USART_SendData(USART2,(uint16_t)LeftBoardUsartType.RX_pData[i]);
 8001122:	4a0a      	ldr	r2, [pc, #40]	; (800114c <main+0x74>)
 8001124:	687b      	ldr	r3, [r7, #4]
 8001126:	4413      	add	r3, r2
 8001128:	3304      	adds	r3, #4
 800112a:	781b      	ldrb	r3, [r3, #0]
 800112c:	b29b      	uxth	r3, r3
 800112e:	4619      	mov	r1, r3
 8001130:	4807      	ldr	r0, [pc, #28]	; (8001150 <main+0x78>)
 8001132:	f7ff fd2c 	bl	8000b8e <USART_SendData>
		  for(i = 0; i < LeftBoardUsartType.RX_Size;i++)
 8001136:	687b      	ldr	r3, [r7, #4]
 8001138:	3301      	adds	r3, #1
 800113a:	607b      	str	r3, [r7, #4]
 800113c:	4b03      	ldr	r3, [pc, #12]	; (800114c <main+0x74>)
 800113e:	885b      	ldrh	r3, [r3, #2]
 8001140:	461a      	mov	r2, r3
 8001142:	687b      	ldr	r3, [r7, #4]
 8001144:	429a      	cmp	r2, r3
 8001146:	dcec      	bgt.n	8001122 <main+0x4a>
	  i++;
 8001148:	e7cf      	b.n	80010ea <main+0x12>
 800114a:	bf00      	nop
 800114c:	20000304 	.word	0x20000304
 8001150:	40004400 	.word	0x40004400

08001154 <Reset_Handler>:

    .section	.text.Reset_Handler
	.weak	Reset_Handler
	.type	Reset_Handler, %function
Reset_Handler:
  ldr   sp, =_estack    /* Atollic update: set stack pointer */
 8001154:	f8df d034 	ldr.w	sp, [pc, #52]	; 800118c <LoopFillZerobss+0x14>

/* Copy the data segment initializers from flash to SRAM */
  movs	r1, #0
 8001158:	2100      	movs	r1, #0
  b	LoopCopyDataInit
 800115a:	e003      	b.n	8001164 <LoopCopyDataInit>

0800115c <CopyDataInit>:

CopyDataInit:
	ldr	r3, =_sidata
 800115c:	4b0c      	ldr	r3, [pc, #48]	; (8001190 <LoopFillZerobss+0x18>)
	ldr	r3, [r3, r1]
 800115e:	585b      	ldr	r3, [r3, r1]
	str	r3, [r0, r1]
 8001160:	5043      	str	r3, [r0, r1]
	adds	r1, r1, #4
 8001162:	3104      	adds	r1, #4

08001164 <LoopCopyDataInit>:

LoopCopyDataInit:
	ldr	r0, =_sdata
 8001164:	480b      	ldr	r0, [pc, #44]	; (8001194 <LoopFillZerobss+0x1c>)
	ldr	r3, =_edata
 8001166:	4b0c      	ldr	r3, [pc, #48]	; (8001198 <LoopFillZerobss+0x20>)
	adds	r2, r0, r1
 8001168:	1842      	adds	r2, r0, r1
	cmp	r2, r3
 800116a:	429a      	cmp	r2, r3
	bcc	CopyDataInit
 800116c:	d3f6      	bcc.n	800115c <CopyDataInit>
	ldr	r2, =_sbss
 800116e:	4a0b      	ldr	r2, [pc, #44]	; (800119c <LoopFillZerobss+0x24>)
	b	LoopFillZerobss
 8001170:	e002      	b.n	8001178 <LoopFillZerobss>

08001172 <FillZerobss>:
/* Zero fill the bss segment. */
FillZerobss:
	movs	r3, #0
 8001172:	2300      	movs	r3, #0
	str	r3, [r2], #4
 8001174:	f842 3b04 	str.w	r3, [r2], #4

08001178 <LoopFillZerobss>:

LoopFillZerobss:
	ldr	r3, = _ebss
 8001178:	4b09      	ldr	r3, [pc, #36]	; (80011a0 <LoopFillZerobss+0x28>)
	cmp	r2, r3
 800117a:	429a      	cmp	r2, r3
	bcc	FillZerobss
 800117c:	d3f9      	bcc.n	8001172 <FillZerobss>

/* Call the clock system intitialization function.*/
    bl  SystemInit
 800117e:	f000 f849 	bl	8001214 <SystemInit>
/* Call static constructors */
    bl __libc_init_array
 8001182:	f000 fa8f 	bl	80016a4 <__libc_init_array>
/* Call the application's entry point.*/
	bl	main
 8001186:	f7ff ffa7 	bl	80010d8 <main>
	bx	lr
 800118a:	4770      	bx	lr
  ldr   sp, =_estack    /* Atollic update: set stack pointer */
 800118c:	2000c000 	.word	0x2000c000
	ldr	r3, =_sidata
 8001190:	0800170c 	.word	0x0800170c
	ldr	r0, =_sdata
 8001194:	20000000 	.word	0x20000000
	ldr	r3, =_edata
 8001198:	20000014 	.word	0x20000014
	ldr	r2, =_sbss
 800119c:	20000014 	.word	0x20000014
	ldr	r3, = _ebss
 80011a0:	2000070c 	.word	0x2000070c

080011a4 <ADC1_2_IRQHandler>:
 * @retval : None
*/
    .section	.text.Default_Handler,"ax",%progbits
Default_Handler:
Infinite_Loop:
	b	Infinite_Loop
 80011a4:	e7fe      	b.n	80011a4 <ADC1_2_IRQHandler>

080011a6 <NMI_Handler>:
  * @brief  This function handles NMI exception.
  * @param  None
  * @retval None
  */
void NMI_Handler(void)
{
 80011a6:	b480      	push	{r7}
 80011a8:	af00      	add	r7, sp, #0
}
 80011aa:	bf00      	nop
 80011ac:	46bd      	mov	sp, r7
 80011ae:	bc80      	pop	{r7}
 80011b0:	4770      	bx	lr

080011b2 <HardFault_Handler>:
  * @brief  This function handles Hard Fault exception.
  * @param  None
  * @retval None
  */
void HardFault_Handler(void)
{
 80011b2:	b480      	push	{r7}
 80011b4:	af00      	add	r7, sp, #0
  /* Go to infinite loop when Hard Fault exception occurs */
  while (1)
 80011b6:	e7fe      	b.n	80011b6 <HardFault_Handler+0x4>

080011b8 <MemManage_Handler>:
  * @brief  This function handles Memory Manage exception.
  * @param  None
  * @retval None
  */
void MemManage_Handler(void)
{
 80011b8:	b480      	push	{r7}
 80011ba:	af00      	add	r7, sp, #0
  /* Go to infinite loop when Memory Manage exception occurs */
  while (1)
 80011bc:	e7fe      	b.n	80011bc <MemManage_Handler+0x4>

080011be <BusFault_Handler>:
  * @brief  This function handles Bus Fault exception.
  * @param  None
  * @retval None
  */
void BusFault_Handler(void)
{
 80011be:	b480      	push	{r7}
 80011c0:	af00      	add	r7, sp, #0
  /* Go to infinite loop when Bus Fault exception occurs */
  while (1)
 80011c2:	e7fe      	b.n	80011c2 <BusFault_Handler+0x4>

080011c4 <UsageFault_Handler>:
  * @brief  This function handles Usage Fault exception.
  * @param  None
  * @retval None
  */
void UsageFault_Handler(void)
{
 80011c4:	b480      	push	{r7}
 80011c6:	af00      	add	r7, sp, #0
  /* Go to infinite loop when Usage Fault exception occurs */
  while (1)
 80011c8:	e7fe      	b.n	80011c8 <UsageFault_Handler+0x4>

080011ca <SVC_Handler>:
  * @brief  This function handles SVCall exception.
  * @param  None
  * @retval None
  */
void SVC_Handler(void)
{
 80011ca:	b480      	push	{r7}
 80011cc:	af00      	add	r7, sp, #0
}
 80011ce:	bf00      	nop
 80011d0:	46bd      	mov	sp, r7
 80011d2:	bc80      	pop	{r7}
 80011d4:	4770      	bx	lr

080011d6 <DebugMon_Handler>:
  * @brief  This function handles Debug Monitor exception.
  * @param  None
  * @retval None
  */
void DebugMon_Handler(void)
{
 80011d6:	b480      	push	{r7}
 80011d8:	af00      	add	r7, sp, #0
}
 80011da:	bf00      	nop
 80011dc:	46bd      	mov	sp, r7
 80011de:	bc80      	pop	{r7}
 80011e0:	4770      	bx	lr

080011e2 <PendSV_Handler>:
  * @brief  This function handles PendSVC exception.
  * @param  None
  * @retval None
  */
void PendSV_Handler(void)
{
 80011e2:	b480      	push	{r7}
 80011e4:	af00      	add	r7, sp, #0
}
 80011e6:	bf00      	nop
 80011e8:	46bd      	mov	sp, r7
 80011ea:	bc80      	pop	{r7}
 80011ec:	4770      	bx	lr

080011ee <SysTick_Handler>:
  * @brief  This function handles SysTick Handler.
  * @param  None
  * @retval None
  */
void SysTick_Handler(void)
{
 80011ee:	b480      	push	{r7}
 80011f0:	af00      	add	r7, sp, #0
}
 80011f2:	bf00      	nop
 80011f4:	46bd      	mov	sp, r7
 80011f6:	bc80      	pop	{r7}
 80011f8:	4770      	bx	lr

080011fa <USART1_IRQHandler>:

/**
  * @}
  */ 
void USART1_IRQHandler(void)
{
 80011fa:	b580      	push	{r7, lr}
 80011fc:	af00      	add	r7, sp, #0
	DS_CoreBoardUsartReceive_IDLE();
 80011fe:	f000 f8f7 	bl	80013f0 <DS_CoreBoardUsartReceive_IDLE>
}
 8001202:	bf00      	nop
 8001204:	bd80      	pop	{r7, pc}

08001206 <USART2_IRQHandler>:


void USART2_IRQHandler(void)
{
 8001206:	b580      	push	{r7, lr}
 8001208:	af00      	add	r7, sp, #0
	DS_LeftBoardUsartReceive_IDLE();
 800120a:	f000 f8bd 	bl	8001388 <DS_LeftBoardUsartReceive_IDLE>
}
 800120e:	bf00      	nop
 8001210:	bd80      	pop	{r7, pc}
	...

08001214 <SystemInit>:
  * @note   This function should be used only after reset.
  * @param  None
  * @retval None
  */
void SystemInit (void)
{
 8001214:	b580      	push	{r7, lr}
 8001216:	af00      	add	r7, sp, #0
  /* Reset the RCC clock configuration to the default reset state(for debug purpose) */
  /* Set HSION bit */
  RCC->CR |= (uint32_t)0x00000001;
 8001218:	4a15      	ldr	r2, [pc, #84]	; (8001270 <SystemInit+0x5c>)
 800121a:	4b15      	ldr	r3, [pc, #84]	; (8001270 <SystemInit+0x5c>)
 800121c:	681b      	ldr	r3, [r3, #0]
 800121e:	f043 0301 	orr.w	r3, r3, #1
 8001222:	6013      	str	r3, [r2, #0]

  /* Reset SW, HPRE, PPRE1, PPRE2, ADCPRE and MCO bits */
#ifndef STM32F10X_CL
  RCC->CFGR &= (uint32_t)0xF8FF0000;
 8001224:	4912      	ldr	r1, [pc, #72]	; (8001270 <SystemInit+0x5c>)
 8001226:	4b12      	ldr	r3, [pc, #72]	; (8001270 <SystemInit+0x5c>)
 8001228:	685a      	ldr	r2, [r3, #4]
 800122a:	4b12      	ldr	r3, [pc, #72]	; (8001274 <SystemInit+0x60>)
 800122c:	4013      	ands	r3, r2
 800122e:	604b      	str	r3, [r1, #4]
#else
  RCC->CFGR &= (uint32_t)0xF0FF0000;
#endif /* STM32F10X_CL */   
  
  /* Reset HSEON, CSSON and PLLON bits */
  RCC->CR &= (uint32_t)0xFEF6FFFF;
 8001230:	4a0f      	ldr	r2, [pc, #60]	; (8001270 <SystemInit+0x5c>)
 8001232:	4b0f      	ldr	r3, [pc, #60]	; (8001270 <SystemInit+0x5c>)
 8001234:	681b      	ldr	r3, [r3, #0]
 8001236:	f023 7384 	bic.w	r3, r3, #17301504	; 0x1080000
 800123a:	f423 3380 	bic.w	r3, r3, #65536	; 0x10000
 800123e:	6013      	str	r3, [r2, #0]

  /* Reset HSEBYP bit */
  RCC->CR &= (uint32_t)0xFFFBFFFF;
 8001240:	4a0b      	ldr	r2, [pc, #44]	; (8001270 <SystemInit+0x5c>)
 8001242:	4b0b      	ldr	r3, [pc, #44]	; (8001270 <SystemInit+0x5c>)
 8001244:	681b      	ldr	r3, [r3, #0]
 8001246:	f423 2380 	bic.w	r3, r3, #262144	; 0x40000
 800124a:	6013      	str	r3, [r2, #0]

  /* Reset PLLSRC, PLLXTPRE, PLLMUL and USBPRE/OTGFSPRE bits */
  RCC->CFGR &= (uint32_t)0xFF80FFFF;
 800124c:	4a08      	ldr	r2, [pc, #32]	; (8001270 <SystemInit+0x5c>)
 800124e:	4b08      	ldr	r3, [pc, #32]	; (8001270 <SystemInit+0x5c>)
 8001250:	685b      	ldr	r3, [r3, #4]
 8001252:	f423 03fe 	bic.w	r3, r3, #8323072	; 0x7f0000
 8001256:	6053      	str	r3, [r2, #4]

  /* Reset CFGR2 register */
  RCC->CFGR2 = 0x00000000;      
#else
  /* Disable all interrupts and clear pending bits  */
  RCC->CIR = 0x009F0000;
 8001258:	4b05      	ldr	r3, [pc, #20]	; (8001270 <SystemInit+0x5c>)
 800125a:	f44f 021f 	mov.w	r2, #10420224	; 0x9f0000
 800125e:	609a      	str	r2, [r3, #8]
  #endif /* DATA_IN_ExtSRAM */
#endif 

  /* Configure the System clock frequency, HCLK, PCLK2 and PCLK1 prescalers */
  /* Configure the Flash Latency cycles and enable prefetch buffer */
  SetSysClock();
 8001260:	f000 f80c 	bl	800127c <SetSysClock>

#ifdef VECT_TAB_SRAM
  SCB->VTOR = SRAM_BASE | VECT_TAB_OFFSET; /* Vector Table Relocation in Internal SRAM. */
#else
  SCB->VTOR = FLASH_BASE | VECT_TAB_OFFSET; /* Vector Table Relocation in Internal FLASH. */
 8001264:	4b04      	ldr	r3, [pc, #16]	; (8001278 <SystemInit+0x64>)
 8001266:	f04f 6200 	mov.w	r2, #134217728	; 0x8000000
 800126a:	609a      	str	r2, [r3, #8]
#endif 
}
 800126c:	bf00      	nop
 800126e:	bd80      	pop	{r7, pc}
 8001270:	40021000 	.word	0x40021000
 8001274:	f8ff0000 	.word	0xf8ff0000
 8001278:	e000ed00 	.word	0xe000ed00

0800127c <SetSysClock>:
  * @brief  Configures the System clock frequency, HCLK, PCLK2 and PCLK1 prescalers.
  * @param  None
  * @retval None
  */
static void SetSysClock(void)
{
 800127c:	b580      	push	{r7, lr}
 800127e:	af00      	add	r7, sp, #0
#elif defined SYSCLK_FREQ_48MHz
  SetSysClockTo48();
#elif defined SYSCLK_FREQ_56MHz
  SetSysClockTo56();  
#elif defined SYSCLK_FREQ_72MHz
  SetSysClockTo72();
 8001280:	f000 f802 	bl	8001288 <SetSysClockTo72>
#endif
 
 /* If none of the define above is enabled, the HSI is used as System clock
    source (default after reset) */ 
}
 8001284:	bf00      	nop
 8001286:	bd80      	pop	{r7, pc}

08001288 <SetSysClockTo72>:
  * @note   This function should be used only after reset.
  * @param  None
  * @retval None
  */
static void SetSysClockTo72(void)
{
 8001288:	b480      	push	{r7}
 800128a:	b083      	sub	sp, #12
 800128c:	af00      	add	r7, sp, #0
  __IO uint32_t StartUpCounter = 0, HSEStatus = 0;
 800128e:	2300      	movs	r3, #0
 8001290:	607b      	str	r3, [r7, #4]
 8001292:	2300      	movs	r3, #0
 8001294:	603b      	str	r3, [r7, #0]
  
  /* SYSCLK, HCLK, PCLK2 and PCLK1 configuration ---------------------------*/    
  /* Enable HSE */    
  RCC->CR |= ((uint32_t)RCC_CR_HSEON);
 8001296:	4a3a      	ldr	r2, [pc, #232]	; (8001380 <SetSysClockTo72+0xf8>)
 8001298:	4b39      	ldr	r3, [pc, #228]	; (8001380 <SetSysClockTo72+0xf8>)
 800129a:	681b      	ldr	r3, [r3, #0]
 800129c:	f443 3380 	orr.w	r3, r3, #65536	; 0x10000
 80012a0:	6013      	str	r3, [r2, #0]
 
  /* Wait till HSE is ready and if Time out is reached exit */
  do
  {
    HSEStatus = RCC->CR & RCC_CR_HSERDY;
 80012a2:	4b37      	ldr	r3, [pc, #220]	; (8001380 <SetSysClockTo72+0xf8>)
 80012a4:	681b      	ldr	r3, [r3, #0]
 80012a6:	f403 3300 	and.w	r3, r3, #131072	; 0x20000
 80012aa:	603b      	str	r3, [r7, #0]
    StartUpCounter++;  
 80012ac:	687b      	ldr	r3, [r7, #4]
 80012ae:	3301      	adds	r3, #1
 80012b0:	607b      	str	r3, [r7, #4]
  } while((HSEStatus == 0) && (StartUpCounter != HSE_STARTUP_TIMEOUT));
 80012b2:	683b      	ldr	r3, [r7, #0]
 80012b4:	2b00      	cmp	r3, #0
 80012b6:	d103      	bne.n	80012c0 <SetSysClockTo72+0x38>
 80012b8:	687b      	ldr	r3, [r7, #4]
 80012ba:	f5b3 6fa0 	cmp.w	r3, #1280	; 0x500
 80012be:	d1f0      	bne.n	80012a2 <SetSysClockTo72+0x1a>

  if ((RCC->CR & RCC_CR_HSERDY) != RESET)
 80012c0:	4b2f      	ldr	r3, [pc, #188]	; (8001380 <SetSysClockTo72+0xf8>)
 80012c2:	681b      	ldr	r3, [r3, #0]
 80012c4:	f403 3300 	and.w	r3, r3, #131072	; 0x20000
 80012c8:	2b00      	cmp	r3, #0
 80012ca:	d002      	beq.n	80012d2 <SetSysClockTo72+0x4a>
  {
    HSEStatus = (uint32_t)0x01;
 80012cc:	2301      	movs	r3, #1
 80012ce:	603b      	str	r3, [r7, #0]
 80012d0:	e001      	b.n	80012d6 <SetSysClockTo72+0x4e>
  }
  else
  {
    HSEStatus = (uint32_t)0x00;
 80012d2:	2300      	movs	r3, #0
 80012d4:	603b      	str	r3, [r7, #0]
  }  

  if (HSEStatus == (uint32_t)0x01)
 80012d6:	683b      	ldr	r3, [r7, #0]
 80012d8:	2b01      	cmp	r3, #1
 80012da:	d14b      	bne.n	8001374 <SetSysClockTo72+0xec>
  {
    /* Enable Prefetch Buffer */
    FLASH->ACR |= FLASH_ACR_PRFTBE;
 80012dc:	4a29      	ldr	r2, [pc, #164]	; (8001384 <SetSysClockTo72+0xfc>)
 80012de:	4b29      	ldr	r3, [pc, #164]	; (8001384 <SetSysClockTo72+0xfc>)
 80012e0:	681b      	ldr	r3, [r3, #0]
 80012e2:	f043 0310 	orr.w	r3, r3, #16
 80012e6:	6013      	str	r3, [r2, #0]

    /* Flash 2 wait state */
    FLASH->ACR &= (uint32_t)((uint32_t)~FLASH_ACR_LATENCY);
 80012e8:	4a26      	ldr	r2, [pc, #152]	; (8001384 <SetSysClockTo72+0xfc>)
 80012ea:	4b26      	ldr	r3, [pc, #152]	; (8001384 <SetSysClockTo72+0xfc>)
 80012ec:	681b      	ldr	r3, [r3, #0]
 80012ee:	f023 0303 	bic.w	r3, r3, #3
 80012f2:	6013      	str	r3, [r2, #0]
    FLASH->ACR |= (uint32_t)FLASH_ACR_LATENCY_2;    
 80012f4:	4a23      	ldr	r2, [pc, #140]	; (8001384 <SetSysClockTo72+0xfc>)
 80012f6:	4b23      	ldr	r3, [pc, #140]	; (8001384 <SetSysClockTo72+0xfc>)
 80012f8:	681b      	ldr	r3, [r3, #0]
 80012fa:	f043 0302 	orr.w	r3, r3, #2
 80012fe:	6013      	str	r3, [r2, #0]

 
    /* HCLK = SYSCLK */
    RCC->CFGR |= (uint32_t)RCC_CFGR_HPRE_DIV1;
 8001300:	4a1f      	ldr	r2, [pc, #124]	; (8001380 <SetSysClockTo72+0xf8>)
 8001302:	4b1f      	ldr	r3, [pc, #124]	; (8001380 <SetSysClockTo72+0xf8>)
 8001304:	685b      	ldr	r3, [r3, #4]
 8001306:	6053      	str	r3, [r2, #4]
      
    /* PCLK2 = HCLK */
    RCC->CFGR |= (uint32_t)RCC_CFGR_PPRE2_DIV1;
 8001308:	4a1d      	ldr	r2, [pc, #116]	; (8001380 <SetSysClockTo72+0xf8>)
 800130a:	4b1d      	ldr	r3, [pc, #116]	; (8001380 <SetSysClockTo72+0xf8>)
 800130c:	685b      	ldr	r3, [r3, #4]
 800130e:	6053      	str	r3, [r2, #4]
    
    /* PCLK1 = HCLK */
    RCC->CFGR |= (uint32_t)RCC_CFGR_PPRE1_DIV2;
 8001310:	4a1b      	ldr	r2, [pc, #108]	; (8001380 <SetSysClockTo72+0xf8>)
 8001312:	4b1b      	ldr	r3, [pc, #108]	; (8001380 <SetSysClockTo72+0xf8>)
 8001314:	685b      	ldr	r3, [r3, #4]
 8001316:	f443 6380 	orr.w	r3, r3, #1024	; 0x400
 800131a:	6053      	str	r3, [r2, #4]
    RCC->CFGR &= (uint32_t)~(RCC_CFGR_PLLXTPRE | RCC_CFGR_PLLSRC | RCC_CFGR_PLLMULL);
    RCC->CFGR |= (uint32_t)(RCC_CFGR_PLLXTPRE_PREDIV1 | RCC_CFGR_PLLSRC_PREDIV1 | 
                            RCC_CFGR_PLLMULL9); 
#else    
    /*  PLL configuration: PLLCLK = HSE * 9 = 72 MHz */
    RCC->CFGR &= (uint32_t)((uint32_t)~(RCC_CFGR_PLLSRC | RCC_CFGR_PLLXTPRE |
 800131c:	4a18      	ldr	r2, [pc, #96]	; (8001380 <SetSysClockTo72+0xf8>)
 800131e:	4b18      	ldr	r3, [pc, #96]	; (8001380 <SetSysClockTo72+0xf8>)
 8001320:	685b      	ldr	r3, [r3, #4]
 8001322:	f423 137c 	bic.w	r3, r3, #4128768	; 0x3f0000
 8001326:	6053      	str	r3, [r2, #4]
                                        RCC_CFGR_PLLMULL));
    RCC->CFGR |= (uint32_t)(RCC_CFGR_PLLSRC_HSE | RCC_CFGR_PLLMULL9);
 8001328:	4a15      	ldr	r2, [pc, #84]	; (8001380 <SetSysClockTo72+0xf8>)
 800132a:	4b15      	ldr	r3, [pc, #84]	; (8001380 <SetSysClockTo72+0xf8>)
 800132c:	685b      	ldr	r3, [r3, #4]
 800132e:	f443 13e8 	orr.w	r3, r3, #1900544	; 0x1d0000
 8001332:	6053      	str	r3, [r2, #4]
#endif /* STM32F10X_CL */

    /* Enable PLL */
    RCC->CR |= RCC_CR_PLLON;
 8001334:	4a12      	ldr	r2, [pc, #72]	; (8001380 <SetSysClockTo72+0xf8>)
 8001336:	4b12      	ldr	r3, [pc, #72]	; (8001380 <SetSysClockTo72+0xf8>)
 8001338:	681b      	ldr	r3, [r3, #0]
 800133a:	f043 7380 	orr.w	r3, r3, #16777216	; 0x1000000
 800133e:	6013      	str	r3, [r2, #0]

    /* Wait till PLL is ready */
    while((RCC->CR & RCC_CR_PLLRDY) == 0)
 8001340:	bf00      	nop
 8001342:	4b0f      	ldr	r3, [pc, #60]	; (8001380 <SetSysClockTo72+0xf8>)
 8001344:	681b      	ldr	r3, [r3, #0]
 8001346:	f003 7300 	and.w	r3, r3, #33554432	; 0x2000000
 800134a:	2b00      	cmp	r3, #0
 800134c:	d0f9      	beq.n	8001342 <SetSysClockTo72+0xba>
    {
    }
    
    /* Select PLL as system clock source */
    RCC->CFGR &= (uint32_t)((uint32_t)~(RCC_CFGR_SW));
 800134e:	4a0c      	ldr	r2, [pc, #48]	; (8001380 <SetSysClockTo72+0xf8>)
 8001350:	4b0b      	ldr	r3, [pc, #44]	; (8001380 <SetSysClockTo72+0xf8>)
 8001352:	685b      	ldr	r3, [r3, #4]
 8001354:	f023 0303 	bic.w	r3, r3, #3
 8001358:	6053      	str	r3, [r2, #4]
    RCC->CFGR |= (uint32_t)RCC_CFGR_SW_PLL;    
 800135a:	4a09      	ldr	r2, [pc, #36]	; (8001380 <SetSysClockTo72+0xf8>)
 800135c:	4b08      	ldr	r3, [pc, #32]	; (8001380 <SetSysClockTo72+0xf8>)
 800135e:	685b      	ldr	r3, [r3, #4]
 8001360:	f043 0302 	orr.w	r3, r3, #2
 8001364:	6053      	str	r3, [r2, #4]

    /* Wait till PLL is used as system clock source */
    while ((RCC->CFGR & (uint32_t)RCC_CFGR_SWS) != (uint32_t)0x08)
 8001366:	bf00      	nop
 8001368:	4b05      	ldr	r3, [pc, #20]	; (8001380 <SetSysClockTo72+0xf8>)
 800136a:	685b      	ldr	r3, [r3, #4]
 800136c:	f003 030c 	and.w	r3, r3, #12
 8001370:	2b08      	cmp	r3, #8
 8001372:	d1f9      	bne.n	8001368 <SetSysClockTo72+0xe0>
  }
  else
  { /* If HSE fails to start-up, the application will have wrong clock 
         configuration. User can add here some code to deal with this error */
  }
}
 8001374:	bf00      	nop
 8001376:	370c      	adds	r7, #12
 8001378:	46bd      	mov	sp, r7
 800137a:	bc80      	pop	{r7}
 800137c:	4770      	bx	lr
 800137e:	bf00      	nop
 8001380:	40021000 	.word	0x40021000
 8001384:	40022000 	.word	0x40022000

08001388 <DS_LeftBoardUsartReceive_IDLE>:

USARTRECIVETYPE CoreBoardUsartType;
USARTRECIVETYPE	LeftBoardUsartType;

void DS_LeftBoardUsartReceive_IDLE()
{
 8001388:	b580      	push	{r7, lr}
 800138a:	af00      	add	r7, sp, #0
	if(RESET != USART_GetITStatus(USART2,USART_IT_IDLE))
 800138c:	f240 4124 	movw	r1, #1060	; 0x424
 8001390:	4814      	ldr	r0, [pc, #80]	; (80013e4 <DS_LeftBoardUsartReceive_IDLE+0x5c>)
 8001392:	f7ff fc1c 	bl	8000bce <USART_GetITStatus>
 8001396:	4603      	mov	r3, r0
 8001398:	2b00      	cmp	r3, #0
 800139a:	d021      	beq.n	80013e0 <DS_LeftBoardUsartReceive_IDLE+0x58>
	{
		DMA_Cmd(DMA1_Channel6,DISABLE);
 800139c:	2100      	movs	r1, #0
 800139e:	4812      	ldr	r0, [pc, #72]	; (80013e8 <DS_LeftBoardUsartReceive_IDLE+0x60>)
 80013a0:	f7ff f89c 	bl	80004dc <DMA_Cmd>
		DMA_ClearFlag(DMA1_FLAG_GL3);
 80013a4:	f44f 7080 	mov.w	r0, #256	; 0x100
 80013a8:	f7ff f8ce 	bl	8000548 <DMA_ClearFlag>
		LeftBoardUsartType.RX_Size = USART_RX_BUF_LEN - DMA_GetCurrDataCounter(DMA1_Channel6);
 80013ac:	480e      	ldr	r0, [pc, #56]	; (80013e8 <DS_LeftBoardUsartReceive_IDLE+0x60>)
 80013ae:	f7ff f8bf 	bl	8000530 <DMA_GetCurrDataCounter>
 80013b2:	4603      	mov	r3, r0
 80013b4:	f5c3 7300 	rsb	r3, r3, #512	; 0x200
 80013b8:	b29a      	uxth	r2, r3
 80013ba:	4b0c      	ldr	r3, [pc, #48]	; (80013ec <DS_LeftBoardUsartReceive_IDLE+0x64>)
 80013bc:	805a      	strh	r2, [r3, #2]
		LeftBoardUsartType.RX_Flag = 1;
 80013be:	4a0b      	ldr	r2, [pc, #44]	; (80013ec <DS_LeftBoardUsartReceive_IDLE+0x64>)
 80013c0:	7813      	ldrb	r3, [r2, #0]
 80013c2:	f043 0301 	orr.w	r3, r3, #1
 80013c6:	7013      	strb	r3, [r2, #0]
		DMA_SetCurrDataCounter(DMA1_Channel6,USART_RX_BUF_LEN);
 80013c8:	f44f 7100 	mov.w	r1, #512	; 0x200
 80013cc:	4806      	ldr	r0, [pc, #24]	; (80013e8 <DS_LeftBoardUsartReceive_IDLE+0x60>)
 80013ce:	f7ff f8a1 	bl	8000514 <DMA_SetCurrDataCounter>
		DMA_Cmd(DMA1_Channel6,ENABLE);
 80013d2:	2101      	movs	r1, #1
 80013d4:	4804      	ldr	r0, [pc, #16]	; (80013e8 <DS_LeftBoardUsartReceive_IDLE+0x60>)
 80013d6:	f7ff f881 	bl	80004dc <DMA_Cmd>
		USART_ReceiveData(USART2);
 80013da:	4802      	ldr	r0, [pc, #8]	; (80013e4 <DS_LeftBoardUsartReceive_IDLE+0x5c>)
 80013dc:	f7ff fbe8 	bl	8000bb0 <USART_ReceiveData>
	}
}
 80013e0:	bf00      	nop
 80013e2:	bd80      	pop	{r7, pc}
 80013e4:	40004400 	.word	0x40004400
 80013e8:	4002006c 	.word	0x4002006c
 80013ec:	20000304 	.word	0x20000304

080013f0 <DS_CoreBoardUsartReceive_IDLE>:

void DS_CoreBoardUsartReceive_IDLE()
{
 80013f0:	b580      	push	{r7, lr}
 80013f2:	af00      	add	r7, sp, #0
	if(RESET != USART_GetITStatus(USART1,USART_IT_IDLE))
 80013f4:	f240 4124 	movw	r1, #1060	; 0x424
 80013f8:	4814      	ldr	r0, [pc, #80]	; (800144c <DS_CoreBoardUsartReceive_IDLE+0x5c>)
 80013fa:	f7ff fbe8 	bl	8000bce <USART_GetITStatus>
 80013fe:	4603      	mov	r3, r0
 8001400:	2b00      	cmp	r3, #0
 8001402:	d021      	beq.n	8001448 <DS_CoreBoardUsartReceive_IDLE+0x58>
	{
		DMA_Cmd(DMA1_Channel5,DISABLE);
 8001404:	2100      	movs	r1, #0
 8001406:	4812      	ldr	r0, [pc, #72]	; (8001450 <DS_CoreBoardUsartReceive_IDLE+0x60>)
 8001408:	f7ff f868 	bl	80004dc <DMA_Cmd>
		DMA_ClearFlag(DMA1_FLAG_GL3);
 800140c:	f44f 7080 	mov.w	r0, #256	; 0x100
 8001410:	f7ff f89a 	bl	8000548 <DMA_ClearFlag>
		CoreBoardUsartType.RX_Size = USART_RX_BUF_LEN - DMA_GetCurrDataCounter(DMA1_Channel5);
 8001414:	480e      	ldr	r0, [pc, #56]	; (8001450 <DS_CoreBoardUsartReceive_IDLE+0x60>)
 8001416:	f7ff f88b 	bl	8000530 <DMA_GetCurrDataCounter>
 800141a:	4603      	mov	r3, r0
 800141c:	f5c3 7300 	rsb	r3, r3, #512	; 0x200
 8001420:	b29a      	uxth	r2, r3
 8001422:	4b0c      	ldr	r3, [pc, #48]	; (8001454 <DS_CoreBoardUsartReceive_IDLE+0x64>)
 8001424:	805a      	strh	r2, [r3, #2]
		CoreBoardUsartType.RX_Flag = 1;
 8001426:	4a0b      	ldr	r2, [pc, #44]	; (8001454 <DS_CoreBoardUsartReceive_IDLE+0x64>)
 8001428:	7813      	ldrb	r3, [r2, #0]
 800142a:	f043 0301 	orr.w	r3, r3, #1
 800142e:	7013      	strb	r3, [r2, #0]
		DMA_SetCurrDataCounter(DMA1_Channel5,USART_RX_BUF_LEN);
 8001430:	f44f 7100 	mov.w	r1, #512	; 0x200
 8001434:	4806      	ldr	r0, [pc, #24]	; (8001450 <DS_CoreBoardUsartReceive_IDLE+0x60>)
 8001436:	f7ff f86d 	bl	8000514 <DMA_SetCurrDataCounter>
		DMA_Cmd(DMA1_Channel5,ENABLE);
 800143a:	2101      	movs	r1, #1
 800143c:	4804      	ldr	r0, [pc, #16]	; (8001450 <DS_CoreBoardUsartReceive_IDLE+0x60>)
 800143e:	f7ff f84d 	bl	80004dc <DMA_Cmd>
		//USART_ClearITPendingBit(USART1,USART_IT_IDLE);
		USART_ReceiveData(USART1);
 8001442:	4802      	ldr	r0, [pc, #8]	; (800144c <DS_CoreBoardUsartReceive_IDLE+0x5c>)
 8001444:	f7ff fbb4 	bl	8000bb0 <USART_ReceiveData>
	}
}
 8001448:	bf00      	nop
 800144a:	bd80      	pop	{r7, pc}
 800144c:	40013800 	.word	0x40013800
 8001450:	40020058 	.word	0x40020058
 8001454:	20000508 	.word	0x20000508

08001458 <MX_USART1_Init>:


void MX_USART1_Init()
{
 8001458:	b580      	push	{r7, lr}
 800145a:	b092      	sub	sp, #72	; 0x48
 800145c:	af00      	add	r7, sp, #0
	GPIO_InitTypeDef GPIO_InitTypeDef_Struct;
	NVIC_InitTypeDef NVIC_InitTypeDef_Struct;
	DMA_InitTypeDef DMA_InitTypeDef_Struct;

	/*  */
	RCC_APB2PeriphClockCmd(RCC_APB2Periph_USART1 | RCC_APB2Periph_GPIOA,ENABLE);
 800145e:	2101      	movs	r1, #1
 8001460:	f244 0004 	movw	r0, #16388	; 0x4004
 8001464:	f7ff fa14 	bl	8000890 <RCC_APB2PeriphClockCmd>
	RCC_AHBPeriphClockCmd(RCC_AHBPeriph_DMA1, ENABLE);
 8001468:	2101      	movs	r1, #1
 800146a:	2001      	movs	r0, #1
 800146c:	f7ff f9f2 	bl	8000854 <RCC_AHBPeriphClockCmd>

	/* TX GPIOA.9 */
	GPIO_InitTypeDef_Struct.GPIO_Mode = GPIO_Mode_AF_PP;
 8001470:	2318      	movs	r3, #24
 8001472:	f887 3037 	strb.w	r3, [r7, #55]	; 0x37
	GPIO_InitTypeDef_Struct.GPIO_Pin = USART1_TX_Pin;
 8001476:	f44f 7300 	mov.w	r3, #512	; 0x200
 800147a:	86bb      	strh	r3, [r7, #52]	; 0x34
	GPIO_InitTypeDef_Struct.GPIO_Speed = GPIO_Speed_50MHz;
 800147c:	2303      	movs	r3, #3
 800147e:	f887 3036 	strb.w	r3, [r7, #54]	; 0x36
	GPIO_Init(USART1_TX_Port,&GPIO_InitTypeDef_Struct);
 8001482:	f107 0334 	add.w	r3, r7, #52	; 0x34
 8001486:	4619      	mov	r1, r3
 8001488:	4837      	ldr	r0, [pc, #220]	; (8001568 <MX_USART1_Init+0x110>)
 800148a:	f7ff f877 	bl	800057c <GPIO_Init>

	/* RX GPIOA.10 */
	GPIO_InitTypeDef_Struct.GPIO_Pin = USART1_RX_Pin;
 800148e:	f44f 6380 	mov.w	r3, #1024	; 0x400
 8001492:	86bb      	strh	r3, [r7, #52]	; 0x34
	GPIO_InitTypeDef_Struct.GPIO_Speed = GPIO_Speed_50MHz;
 8001494:	2303      	movs	r3, #3
 8001496:	f887 3036 	strb.w	r3, [r7, #54]	; 0x36
	GPIO_InitTypeDef_Struct.GPIO_Mode = GPIO_Mode_IN_FLOATING;
 800149a:	2304      	movs	r3, #4
 800149c:	f887 3037 	strb.w	r3, [r7, #55]	; 0x37
	GPIO_Init(USART1_RX_Port,&GPIO_InitTypeDef_Struct);
 80014a0:	f107 0334 	add.w	r3, r7, #52	; 0x34
 80014a4:	4619      	mov	r1, r3
 80014a6:	4830      	ldr	r0, [pc, #192]	; (8001568 <MX_USART1_Init+0x110>)
 80014a8:	f7ff f868 	bl	800057c <GPIO_Init>

	/* USART1 NVIC  */
	NVIC_InitTypeDef_Struct.NVIC_IRQChannel = USART1_IRQn;
 80014ac:	2325      	movs	r3, #37	; 0x25
 80014ae:	f887 3030 	strb.w	r3, [r7, #48]	; 0x30
	NVIC_InitTypeDef_Struct.NVIC_IRQChannelPreemptionPriority = 3;
 80014b2:	2303      	movs	r3, #3
 80014b4:	f887 3031 	strb.w	r3, [r7, #49]	; 0x31
	NVIC_InitTypeDef_Struct.NVIC_IRQChannelSubPriority = 3;
 80014b8:	2303      	movs	r3, #3
 80014ba:	f887 3032 	strb.w	r3, [r7, #50]	; 0x32
	NVIC_InitTypeDef_Struct.NVIC_IRQChannelCmd = ENABLE;
 80014be:	2301      	movs	r3, #1
 80014c0:	f887 3033 	strb.w	r3, [r7, #51]	; 0x33
	NVIC_Init(&NVIC_InitTypeDef_Struct);
 80014c4:	f107 0330 	add.w	r3, r7, #48	; 0x30
 80014c8:	4618      	mov	r0, r3
 80014ca:	f7fe feab 	bl	8000224 <NVIC_Init>

	/* USART1 DMA  */
	DMA_DeInit(DMA1_Channel5);
 80014ce:	4827      	ldr	r0, [pc, #156]	; (800156c <MX_USART1_Init+0x114>)
 80014d0:	f7fe ff0a 	bl	80002e8 <DMA_DeInit>
	DMA_InitTypeDef_Struct.DMA_DIR = DMA_DIR_PeripheralSRC;
 80014d4:	2300      	movs	r3, #0
 80014d6:	60fb      	str	r3, [r7, #12]
	DMA_InitTypeDef_Struct.DMA_PeripheralInc = DMA_PeripheralInc_Disable;
 80014d8:	2300      	movs	r3, #0
 80014da:	617b      	str	r3, [r7, #20]
	DMA_InitTypeDef_Struct.DMA_MemoryInc= DMA_MemoryInc_Enable;
 80014dc:	2380      	movs	r3, #128	; 0x80
 80014de:	61bb      	str	r3, [r7, #24]
	DMA_InitTypeDef_Struct.DMA_PeripheralDataSize = DMA_PeripheralDataSize_Byte;
 80014e0:	2300      	movs	r3, #0
 80014e2:	61fb      	str	r3, [r7, #28]
	DMA_InitTypeDef_Struct.DMA_MemoryDataSize = DMA_MemoryDataSize_Byte;
 80014e4:	2300      	movs	r3, #0
 80014e6:	623b      	str	r3, [r7, #32]
	DMA_InitTypeDef_Struct.DMA_Mode = DMA_Mode_Normal;
 80014e8:	2300      	movs	r3, #0
 80014ea:	627b      	str	r3, [r7, #36]	; 0x24
	DMA_InitTypeDef_Struct.DMA_Priority = DMA_Priority_Low;
 80014ec:	2300      	movs	r3, #0
 80014ee:	62bb      	str	r3, [r7, #40]	; 0x28
	DMA_InitTypeDef_Struct.DMA_M2M = DMA_M2M_Disable;
 80014f0:	2300      	movs	r3, #0
 80014f2:	62fb      	str	r3, [r7, #44]	; 0x2c
	DMA_InitTypeDef_Struct.DMA_PeripheralBaseAddr = (uint32_t)&(USART1->DR);
 80014f4:	4b1e      	ldr	r3, [pc, #120]	; (8001570 <MX_USART1_Init+0x118>)
 80014f6:	607b      	str	r3, [r7, #4]
	DMA_InitTypeDef_Struct.DMA_BufferSize = USART_RX_BUF_LEN;
 80014f8:	f44f 7300 	mov.w	r3, #512	; 0x200
 80014fc:	613b      	str	r3, [r7, #16]
	DMA_InitTypeDef_Struct.DMA_MemoryBaseAddr =  (uint32_t)&(CoreBoardUsartType.RX_pData);
 80014fe:	4b1d      	ldr	r3, [pc, #116]	; (8001574 <MX_USART1_Init+0x11c>)
 8001500:	60bb      	str	r3, [r7, #8]
	DMA_Init(DMA1_Channel5,&DMA_InitTypeDef_Struct);
 8001502:	1d3b      	adds	r3, r7, #4
 8001504:	4619      	mov	r1, r3
 8001506:	4819      	ldr	r0, [pc, #100]	; (800156c <MX_USART1_Init+0x114>)
 8001508:	f7fe ffaa 	bl	8000460 <DMA_Init>
	DMA_Cmd(DMA1_Channel5,ENABLE);
 800150c:	2101      	movs	r1, #1
 800150e:	4817      	ldr	r0, [pc, #92]	; (800156c <MX_USART1_Init+0x114>)
 8001510:	f7fe ffe4 	bl	80004dc <DMA_Cmd>
	USART_DMACmd(USART1,USART_DMAReq_Rx,ENABLE);
 8001514:	2201      	movs	r2, #1
 8001516:	2140      	movs	r1, #64	; 0x40
 8001518:	4817      	ldr	r0, [pc, #92]	; (8001578 <MX_USART1_Init+0x120>)
 800151a:	f7ff fb15 	bl	8000b48 <USART_DMACmd>

	/* USART1  */
	USART_InitTypeDef_Struct.USART_BaudRate = USARTBAUDRATE;
 800151e:	f44f 33e1 	mov.w	r3, #115200	; 0x1c200
 8001522:	63bb      	str	r3, [r7, #56]	; 0x38
	USART_InitTypeDef_Struct.USART_HardwareFlowControl = USART_HardwareFlowControl_None;
 8001524:	2300      	movs	r3, #0
 8001526:	f8a7 3044 	strh.w	r3, [r7, #68]	; 0x44
	USART_InitTypeDef_Struct.USART_Parity = USART_Parity_No;
 800152a:	2300      	movs	r3, #0
 800152c:	f8a7 3040 	strh.w	r3, [r7, #64]	; 0x40
	USART_InitTypeDef_Struct.USART_StopBits = USART_StopBits_1;
 8001530:	2300      	movs	r3, #0
 8001532:	87fb      	strh	r3, [r7, #62]	; 0x3e
	USART_InitTypeDef_Struct.USART_WordLength = USART_WordLength_8b;
 8001534:	2300      	movs	r3, #0
 8001536:	87bb      	strh	r3, [r7, #60]	; 0x3c
	USART_InitTypeDef_Struct.USART_Mode = USART_Mode_Rx | USART_Mode_Tx;
 8001538:	230c      	movs	r3, #12
 800153a:	f8a7 3042 	strh.w	r3, [r7, #66]	; 0x42
	USART_Init(USART1, &USART_InitTypeDef_Struct);
 800153e:	f107 0338 	add.w	r3, r7, #56	; 0x38
 8001542:	4619      	mov	r1, r3
 8001544:	480c      	ldr	r0, [pc, #48]	; (8001578 <MX_USART1_Init+0x120>)
 8001546:	f7ff f9df 	bl	8000908 <USART_Init>
	USART_ITConfig(USART1, USART_IT_IDLE, ENABLE);
 800154a:	2201      	movs	r2, #1
 800154c:	f240 4124 	movw	r1, #1060	; 0x424
 8001550:	4809      	ldr	r0, [pc, #36]	; (8001578 <MX_USART1_Init+0x120>)
 8001552:	f7ff fab2 	bl	8000aba <USART_ITConfig>
	USART_Cmd(USART1,ENABLE);
 8001556:	2101      	movs	r1, #1
 8001558:	4807      	ldr	r0, [pc, #28]	; (8001578 <MX_USART1_Init+0x120>)
 800155a:	f7ff fa8f 	bl	8000a7c <USART_Cmd>

}
 800155e:	bf00      	nop
 8001560:	3748      	adds	r7, #72	; 0x48
 8001562:	46bd      	mov	sp, r7
 8001564:	bd80      	pop	{r7, pc}
 8001566:	bf00      	nop
 8001568:	40010800 	.word	0x40010800
 800156c:	40020058 	.word	0x40020058
 8001570:	40013804 	.word	0x40013804
 8001574:	2000050c 	.word	0x2000050c
 8001578:	40013800 	.word	0x40013800

0800157c <MX_USART2_Init>:
void MX_USART2_Init(void)
{
 800157c:	b580      	push	{r7, lr}
 800157e:	b092      	sub	sp, #72	; 0x48
 8001580:	af00      	add	r7, sp, #0
	GPIO_InitTypeDef GPIO_InitTypeDef_Struct;
	NVIC_InitTypeDef NVIC_InitTypeDef_Struct;
	DMA_InitTypeDef DMA_InitTypeDef_Struct;

	/*  */
	RCC_APB2PeriphClockCmd(RCC_APB2Periph_GPIOA,ENABLE);
 8001582:	2101      	movs	r1, #1
 8001584:	2004      	movs	r0, #4
 8001586:	f7ff f983 	bl	8000890 <RCC_APB2PeriphClockCmd>
	RCC_APB1PeriphClockCmd(RCC_APB1Periph_USART2,ENABLE);
 800158a:	2101      	movs	r1, #1
 800158c:	f44f 3000 	mov.w	r0, #131072	; 0x20000
 8001590:	f7ff f99c 	bl	80008cc <RCC_APB1PeriphClockCmd>
	RCC_AHBPeriphClockCmd(RCC_AHBPeriph_DMA1, ENABLE);
 8001594:	2101      	movs	r1, #1
 8001596:	2001      	movs	r0, #1
 8001598:	f7ff f95c 	bl	8000854 <RCC_AHBPeriphClockCmd>

	/* GPIOA.02 TX */
	GPIO_InitTypeDef_Struct.GPIO_Pin = USART2_TX_Pin;
 800159c:	2304      	movs	r3, #4
 800159e:	86bb      	strh	r3, [r7, #52]	; 0x34
	GPIO_InitTypeDef_Struct.GPIO_Mode = GPIO_Mode_AF_PP;
 80015a0:	2318      	movs	r3, #24
 80015a2:	f887 3037 	strb.w	r3, [r7, #55]	; 0x37
	GPIO_InitTypeDef_Struct.GPIO_Speed = GPIO_Speed_50MHz;
 80015a6:	2303      	movs	r3, #3
 80015a8:	f887 3036 	strb.w	r3, [r7, #54]	; 0x36
	GPIO_Init(USART2_TX_Port,&GPIO_InitTypeDef_Struct);
 80015ac:	f107 0334 	add.w	r3, r7, #52	; 0x34
 80015b0:	4619      	mov	r1, r3
 80015b2:	4837      	ldr	r0, [pc, #220]	; (8001690 <MX_USART2_Init+0x114>)
 80015b4:	f7fe ffe2 	bl	800057c <GPIO_Init>

	/* GPIOA.03 RX */
	GPIO_InitTypeDef_Struct.GPIO_Pin = USART2_RX_Pin;
 80015b8:	2308      	movs	r3, #8
 80015ba:	86bb      	strh	r3, [r7, #52]	; 0x34
	GPIO_InitTypeDef_Struct.GPIO_Mode = GPIO_Mode_IN_FLOATING;
 80015bc:	2304      	movs	r3, #4
 80015be:	f887 3037 	strb.w	r3, [r7, #55]	; 0x37
	GPIO_InitTypeDef_Struct.GPIO_Speed = GPIO_Speed_50MHz;
 80015c2:	2303      	movs	r3, #3
 80015c4:	f887 3036 	strb.w	r3, [r7, #54]	; 0x36
	GPIO_Init(USART2_RX_Port,&GPIO_InitTypeDef_Struct);
 80015c8:	f107 0334 	add.w	r3, r7, #52	; 0x34
 80015cc:	4619      	mov	r1, r3
 80015ce:	4830      	ldr	r0, [pc, #192]	; (8001690 <MX_USART2_Init+0x114>)
 80015d0:	f7fe ffd4 	bl	800057c <GPIO_Init>

	/* USART2 NVIC */
	NVIC_InitTypeDef_Struct.NVIC_IRQChannel = USART2_IRQn;
 80015d4:	2326      	movs	r3, #38	; 0x26
 80015d6:	f887 3030 	strb.w	r3, [r7, #48]	; 0x30
	NVIC_InitTypeDef_Struct.NVIC_IRQChannelPreemptionPriority = 3;
 80015da:	2303      	movs	r3, #3
 80015dc:	f887 3031 	strb.w	r3, [r7, #49]	; 0x31
	NVIC_InitTypeDef_Struct.NVIC_IRQChannelSubPriority = 2;
 80015e0:	2302      	movs	r3, #2
 80015e2:	f887 3032 	strb.w	r3, [r7, #50]	; 0x32
	NVIC_InitTypeDef_Struct.NVIC_IRQChannelCmd = ENABLE;
 80015e6:	2301      	movs	r3, #1
 80015e8:	f887 3033 	strb.w	r3, [r7, #51]	; 0x33
	NVIC_Init(&NVIC_InitTypeDef_Struct);
 80015ec:	f107 0330 	add.w	r3, r7, #48	; 0x30
 80015f0:	4618      	mov	r0, r3
 80015f2:	f7fe fe17 	bl	8000224 <NVIC_Init>

	/* USART2 DMA */
	DMA_DeInit(DMA1_Channel6);
 80015f6:	4827      	ldr	r0, [pc, #156]	; (8001694 <MX_USART2_Init+0x118>)
 80015f8:	f7fe fe76 	bl	80002e8 <DMA_DeInit>
	DMA_InitTypeDef_Struct.DMA_DIR = DMA_DIR_PeripheralSRC;
 80015fc:	2300      	movs	r3, #0
 80015fe:	60fb      	str	r3, [r7, #12]
	DMA_InitTypeDef_Struct.DMA_PeripheralInc = DMA_PeripheralInc_Disable;
 8001600:	2300      	movs	r3, #0
 8001602:	617b      	str	r3, [r7, #20]
	DMA_InitTypeDef_Struct.DMA_MemoryInc= DMA_MemoryInc_Enable;
 8001604:	2380      	movs	r3, #128	; 0x80
 8001606:	61bb      	str	r3, [r7, #24]
	DMA_InitTypeDef_Struct.DMA_PeripheralDataSize = DMA_PeripheralDataSize_Byte;
 8001608:	2300      	movs	r3, #0
 800160a:	61fb      	str	r3, [r7, #28]
	DMA_InitTypeDef_Struct.DMA_MemoryDataSize = DMA_MemoryDataSize_Byte;
 800160c:	2300      	movs	r3, #0
 800160e:	623b      	str	r3, [r7, #32]
	DMA_InitTypeDef_Struct.DMA_Mode = DMA_Mode_Normal;
 8001610:	2300      	movs	r3, #0
 8001612:	627b      	str	r3, [r7, #36]	; 0x24
	DMA_InitTypeDef_Struct.DMA_Priority = DMA_Priority_Low;
 8001614:	2300      	movs	r3, #0
 8001616:	62bb      	str	r3, [r7, #40]	; 0x28
	DMA_InitTypeDef_Struct.DMA_M2M = DMA_M2M_Disable;
 8001618:	2300      	movs	r3, #0
 800161a:	62fb      	str	r3, [r7, #44]	; 0x2c
	DMA_InitTypeDef_Struct.DMA_PeripheralBaseAddr = (uint32_t)&(USART2->DR);
 800161c:	4b1e      	ldr	r3, [pc, #120]	; (8001698 <MX_USART2_Init+0x11c>)
 800161e:	607b      	str	r3, [r7, #4]
	DMA_InitTypeDef_Struct.DMA_BufferSize = USART_RX_BUF_LEN;
 8001620:	f44f 7300 	mov.w	r3, #512	; 0x200
 8001624:	613b      	str	r3, [r7, #16]
	DMA_InitTypeDef_Struct.DMA_MemoryBaseAddr =  (uint32_t)&(LeftBoardUsartType.RX_pData);
 8001626:	4b1d      	ldr	r3, [pc, #116]	; (800169c <MX_USART2_Init+0x120>)
 8001628:	60bb      	str	r3, [r7, #8]
	DMA_Init(DMA1_Channel6,&DMA_InitTypeDef_Struct);
 800162a:	1d3b      	adds	r3, r7, #4
 800162c:	4619      	mov	r1, r3
 800162e:	4819      	ldr	r0, [pc, #100]	; (8001694 <MX_USART2_Init+0x118>)
 8001630:	f7fe ff16 	bl	8000460 <DMA_Init>
	DMA_Cmd(DMA1_Channel6,ENABLE);
 8001634:	2101      	movs	r1, #1
 8001636:	4817      	ldr	r0, [pc, #92]	; (8001694 <MX_USART2_Init+0x118>)
 8001638:	f7fe ff50 	bl	80004dc <DMA_Cmd>
	USART_DMACmd(USART2,USART_DMAReq_Rx,ENABLE);
 800163c:	2201      	movs	r2, #1
 800163e:	2140      	movs	r1, #64	; 0x40
 8001640:	4817      	ldr	r0, [pc, #92]	; (80016a0 <MX_USART2_Init+0x124>)
 8001642:	f7ff fa81 	bl	8000b48 <USART_DMACmd>

	/* USART2 */
	USART_InitTypeDef_Struct.USART_BaudRate = USARTBAUDRATE;
 8001646:	f44f 33e1 	mov.w	r3, #115200	; 0x1c200
 800164a:	63bb      	str	r3, [r7, #56]	; 0x38
	USART_InitTypeDef_Struct.USART_HardwareFlowControl = USART_HardwareFlowControl_None;
 800164c:	2300      	movs	r3, #0
 800164e:	f8a7 3044 	strh.w	r3, [r7, #68]	; 0x44
	USART_InitTypeDef_Struct.USART_Parity = USART_Parity_No;
 8001652:	2300      	movs	r3, #0
 8001654:	f8a7 3040 	strh.w	r3, [r7, #64]	; 0x40
	USART_InitTypeDef_Struct.USART_StopBits = USART_StopBits_1;
 8001658:	2300      	movs	r3, #0
 800165a:	87fb      	strh	r3, [r7, #62]	; 0x3e
	USART_InitTypeDef_Struct.USART_WordLength = USART_WordLength_8b;
 800165c:	2300      	movs	r3, #0
 800165e:	87bb      	strh	r3, [r7, #60]	; 0x3c
	USART_InitTypeDef_Struct.USART_Mode = USART_Mode_Rx | USART_Mode_Tx;
 8001660:	230c      	movs	r3, #12
 8001662:	f8a7 3042 	strh.w	r3, [r7, #66]	; 0x42
	USART_Init(USART2,&USART_InitTypeDef_Struct);
 8001666:	f107 0338 	add.w	r3, r7, #56	; 0x38
 800166a:	4619      	mov	r1, r3
 800166c:	480c      	ldr	r0, [pc, #48]	; (80016a0 <MX_USART2_Init+0x124>)
 800166e:	f7ff f94b 	bl	8000908 <USART_Init>
	USART_ITConfig(USART2, USART_IT_IDLE, ENABLE);
 8001672:	2201      	movs	r2, #1
 8001674:	f240 4124 	movw	r1, #1060	; 0x424
 8001678:	4809      	ldr	r0, [pc, #36]	; (80016a0 <MX_USART2_Init+0x124>)
 800167a:	f7ff fa1e 	bl	8000aba <USART_ITConfig>
	USART_Cmd(USART2,ENABLE);
 800167e:	2101      	movs	r1, #1
 8001680:	4807      	ldr	r0, [pc, #28]	; (80016a0 <MX_USART2_Init+0x124>)
 8001682:	f7ff f9fb 	bl	8000a7c <USART_Cmd>

}
 8001686:	bf00      	nop
 8001688:	3748      	adds	r7, #72	; 0x48
 800168a:	46bd      	mov	sp, r7
 800168c:	bd80      	pop	{r7, pc}
 800168e:	bf00      	nop
 8001690:	40010800 	.word	0x40010800
 8001694:	4002006c 	.word	0x4002006c
 8001698:	40004404 	.word	0x40004404
 800169c:	20000308 	.word	0x20000308
 80016a0:	40004400 	.word	0x40004400

080016a4 <__libc_init_array>:
 80016a4:	b570      	push	{r4, r5, r6, lr}
 80016a6:	2500      	movs	r5, #0
 80016a8:	4e0c      	ldr	r6, [pc, #48]	; (80016dc <__libc_init_array+0x38>)
 80016aa:	4c0d      	ldr	r4, [pc, #52]	; (80016e0 <__libc_init_array+0x3c>)
 80016ac:	1ba4      	subs	r4, r4, r6
 80016ae:	10a4      	asrs	r4, r4, #2
 80016b0:	42a5      	cmp	r5, r4
 80016b2:	d109      	bne.n	80016c8 <__libc_init_array+0x24>
 80016b4:	f000 f81a 	bl	80016ec <_init>
 80016b8:	2500      	movs	r5, #0
 80016ba:	4e0a      	ldr	r6, [pc, #40]	; (80016e4 <__libc_init_array+0x40>)
 80016bc:	4c0a      	ldr	r4, [pc, #40]	; (80016e8 <__libc_init_array+0x44>)
 80016be:	1ba4      	subs	r4, r4, r6
 80016c0:	10a4      	asrs	r4, r4, #2
 80016c2:	42a5      	cmp	r5, r4
 80016c4:	d105      	bne.n	80016d2 <__libc_init_array+0x2e>
 80016c6:	bd70      	pop	{r4, r5, r6, pc}
 80016c8:	f856 3025 	ldr.w	r3, [r6, r5, lsl #2]
 80016cc:	4798      	blx	r3
 80016ce:	3501      	adds	r5, #1
 80016d0:	e7ee      	b.n	80016b0 <__libc_init_array+0xc>
 80016d2:	f856 3025 	ldr.w	r3, [r6, r5, lsl #2]
 80016d6:	4798      	blx	r3
 80016d8:	3501      	adds	r5, #1
 80016da:	e7f2      	b.n	80016c2 <__libc_init_array+0x1e>
 80016dc:	08001704 	.word	0x08001704
 80016e0:	08001704 	.word	0x08001704
 80016e4:	08001704 	.word	0x08001704
 80016e8:	08001708 	.word	0x08001708

080016ec <_init>:
 80016ec:	b5f8      	push	{r3, r4, r5, r6, r7, lr}
 80016ee:	bf00      	nop
 80016f0:	bcf8      	pop	{r3, r4, r5, r6, r7}
 80016f2:	bc08      	pop	{r3}
 80016f4:	469e      	mov	lr, r3
 80016f6:	4770      	bx	lr

080016f8 <_fini>:
 80016f8:	b5f8      	push	{r3, r4, r5, r6, r7, lr}
 80016fa:	bf00      	nop
 80016fc:	bcf8      	pop	{r3, r4, r5, r6, r7}
 80016fe:	bc08      	pop	{r3}
 8001700:	469e      	mov	lr, r3
 8001702:	4770      	bx	lr
